Archive member included to satisfy reference by file (symbol)

/home/saraj/Desktop/glibc_modified/build/libc_pic.a(check_fds.os)
                              /home/saraj/Desktop/glibc_modified/build/elf/dl-allobjs.os (__libc_check_standard_fds)
/home/saraj/Desktop/glibc_modified/build/libc_pic.a(errno.os)
                              /home/saraj/Desktop/glibc_modified/build/libc_pic.a(check_fds.os) (__libc_errno)
/home/saraj/Desktop/glibc_modified/build/libc_pic.a(setjmp.os)
                              /home/saraj/Desktop/glibc_modified/build/elf/dl-allobjs.os (__sigsetjmp)
/home/saraj/Desktop/glibc_modified/build/libc_pic.a(__longjmp.os)
                              /home/saraj/Desktop/glibc_modified/build/elf/dl-allobjs.os (__longjmp)
/home/saraj/Desktop/glibc_modified/build/libc_pic.a(getenv.os)
                              /home/saraj/Desktop/glibc_modified/build/elf/dl-allobjs.os (getenv)
/home/saraj/Desktop/glibc_modified/build/libc_pic.a(_fitoa_word.os)
                              /home/saraj/Desktop/glibc_modified/build/elf/dl-allobjs.os (_itoa_word)
/home/saraj/Desktop/glibc_modified/build/libc_pic.a(itoa-udigits.os)
                              /home/saraj/Desktop/glibc_modified/build/libc_pic.a(_fitoa_word.os) (__GI__itoa_upper_digits)
/home/saraj/Desktop/glibc_modified/build/libc_pic.a(lowlevellock.os)
                              /home/saraj/Desktop/glibc_modified/build/elf/dl-allobjs.os (__lll_lock_wait_private)
/home/saraj/Desktop/glibc_modified/build/libc_pic.a(scratch_buffer_set_array_size.os)
                              /home/saraj/Desktop/glibc_modified/build/elf/dl-allobjs.os (__libc_scratch_buffer_set_array_size)
/home/saraj/Desktop/glibc_modified/build/libc_pic.a(memchr.os)
                              /home/saraj/Desktop/glibc_modified/build/elf/dl-allobjs.os (memchr)
/home/saraj/Desktop/glibc_modified/build/libc_pic.a(memcmp.os)
                              /home/saraj/Desktop/glibc_modified/build/elf/dl-allobjs.os (memcmp)
/home/saraj/Desktop/glibc_modified/build/libc_pic.a(memcpy.os)
                              /home/saraj/Desktop/glibc_modified/build/libc_pic.a(check_fds.os) (__GI_memcpy)
/home/saraj/Desktop/glibc_modified/build/libc_pic.a(memmove.os)
                              /home/saraj/Desktop/glibc_modified/build/elf/dl-allobjs.os (memmove)
/home/saraj/Desktop/glibc_modified/build/libc_pic.a(mempcpy.os)
                              /home/saraj/Desktop/glibc_modified/build/elf/dl-allobjs.os (mempcpy)
/home/saraj/Desktop/glibc_modified/build/libc_pic.a(memset.os)
                              /home/saraj/Desktop/glibc_modified/build/elf/dl-allobjs.os (memset)
/home/saraj/Desktop/glibc_modified/build/libc_pic.a(stpcpy.os)
                              /home/saraj/Desktop/glibc_modified/build/elf/dl-allobjs.os (stpcpy)
/home/saraj/Desktop/glibc_modified/build/libc_pic.a(strchr.os)
                              /home/saraj/Desktop/glibc_modified/build/elf/dl-allobjs.os (strchr)
/home/saraj/Desktop/glibc_modified/build/libc_pic.a(strcmp.os)
                              /home/saraj/Desktop/glibc_modified/build/elf/dl-allobjs.os (strcmp)
/home/saraj/Desktop/glibc_modified/build/libc_pic.a(strcspn.os)
                              /home/saraj/Desktop/glibc_modified/build/elf/dl-allobjs.os (strcspn)
/home/saraj/Desktop/glibc_modified/build/libc_pic.a(strdup.os)
                              /home/saraj/Desktop/glibc_modified/build/elf/dl-allobjs.os (__strdup)
/home/saraj/Desktop/glibc_modified/build/libc_pic.a(strerrorname_np.os)
                              /home/saraj/Desktop/glibc_modified/build/elf/dl-allobjs.os (strerrorname_np)
/home/saraj/Desktop/glibc_modified/build/libc_pic.a(strlen.os)
                              /home/saraj/Desktop/glibc_modified/build/elf/dl-allobjs.os (strlen)
/home/saraj/Desktop/glibc_modified/build/libc_pic.a(strncmp.os)
                              /home/saraj/Desktop/glibc_modified/build/elf/dl-allobjs.os (strncmp)
/home/saraj/Desktop/glibc_modified/build/libc_pic.a(strnlen.os)
                              /home/saraj/Desktop/glibc_modified/build/elf/dl-allobjs.os (strnlen)
/home/saraj/Desktop/glibc_modified/build/libc_pic.a(memchr-avx2.os)
                              /home/saraj/Desktop/glibc_modified/build/libc_pic.a(memchr.os) (__memchr_avx2)
/home/saraj/Desktop/glibc_modified/build/libc_pic.a(memchr-avx2-rtm.os)
                              /home/saraj/Desktop/glibc_modified/build/libc_pic.a(memchr.os) (__memchr_avx2_rtm)
/home/saraj/Desktop/glibc_modified/build/libc_pic.a(memchr-evex.os)
                              /home/saraj/Desktop/glibc_modified/build/libc_pic.a(memchr.os) (__memchr_evex)
/home/saraj/Desktop/glibc_modified/build/libc_pic.a(memchr-evex-rtm.os)
                              /home/saraj/Desktop/glibc_modified/build/libc_pic.a(memchr.os) (__memchr_evex_rtm)
/home/saraj/Desktop/glibc_modified/build/libc_pic.a(memchr-sse2.os)
                              /home/saraj/Desktop/glibc_modified/build/libc_pic.a(memchr.os) (__memchr_sse2)
/home/saraj/Desktop/glibc_modified/build/libc_pic.a(memcmp-avx2-movbe.os)
                              /home/saraj/Desktop/glibc_modified/build/libc_pic.a(memcmp.os) (__memcmp_avx2_movbe)
/home/saraj/Desktop/glibc_modified/build/libc_pic.a(memcmp-avx2-movbe-rtm.os)
                              /home/saraj/Desktop/glibc_modified/build/libc_pic.a(memcmp.os) (__memcmp_avx2_movbe_rtm)
/home/saraj/Desktop/glibc_modified/build/libc_pic.a(memcmp-evex-movbe.os)
                              /home/saraj/Desktop/glibc_modified/build/libc_pic.a(memcmp.os) (__memcmp_evex_movbe)
/home/saraj/Desktop/glibc_modified/build/libc_pic.a(memcmp-sse2.os)
                              /home/saraj/Desktop/glibc_modified/build/libc_pic.a(memcmp.os) (__memcmp_sse2)
/home/saraj/Desktop/glibc_modified/build/libc_pic.a(memmove-avx-unaligned-erms.os)
                              /home/saraj/Desktop/glibc_modified/build/libc_pic.a(mempcpy.os) (__mempcpy_avx_unaligned)
/home/saraj/Desktop/glibc_modified/build/libc_pic.a(memmove-avx-unaligned-erms-rtm.os)
                              /home/saraj/Desktop/glibc_modified/build/libc_pic.a(mempcpy.os) (__mempcpy_avx_unaligned_rtm)
/home/saraj/Desktop/glibc_modified/build/libc_pic.a(memmove-avx512-no-vzeroupper.os)
                              /home/saraj/Desktop/glibc_modified/build/libc_pic.a(mempcpy.os) (__mempcpy_avx512_no_vzeroupper)
/home/saraj/Desktop/glibc_modified/build/libc_pic.a(memmove-avx512-unaligned-erms.os)
                              /home/saraj/Desktop/glibc_modified/build/libc_pic.a(mempcpy.os) (__mempcpy_avx512_unaligned)
/home/saraj/Desktop/glibc_modified/build/libc_pic.a(memmove-erms.os)
                              /home/saraj/Desktop/glibc_modified/build/libc_pic.a(mempcpy.os) (__mempcpy_erms)
/home/saraj/Desktop/glibc_modified/build/libc_pic.a(memmove-evex-unaligned-erms.os)
                              /home/saraj/Desktop/glibc_modified/build/libc_pic.a(mempcpy.os) (__mempcpy_evex_unaligned)
/home/saraj/Desktop/glibc_modified/build/libc_pic.a(memmove-sse2-unaligned-erms.os)
                              /home/saraj/Desktop/glibc_modified/build/libc_pic.a(mempcpy.os) (__mempcpy_sse2_unaligned)
/home/saraj/Desktop/glibc_modified/build/libc_pic.a(memmove-ssse3.os)
                              /home/saraj/Desktop/glibc_modified/build/libc_pic.a(mempcpy.os) (__mempcpy_ssse3)
/home/saraj/Desktop/glibc_modified/build/libc_pic.a(memset-avx2-unaligned-erms.os)
                              /home/saraj/Desktop/glibc_modified/build/libc_pic.a(memset.os) (__memset_avx2_unaligned)
/home/saraj/Desktop/glibc_modified/build/libc_pic.a(memset-avx2-unaligned-erms-rtm.os)
                              /home/saraj/Desktop/glibc_modified/build/libc_pic.a(memset.os) (__memset_avx2_unaligned_rtm)
/home/saraj/Desktop/glibc_modified/build/libc_pic.a(memset-avx512-no-vzeroupper.os)
                              /home/saraj/Desktop/glibc_modified/build/libc_pic.a(memset.os) (__memset_avx512_no_vzeroupper)
/home/saraj/Desktop/glibc_modified/build/libc_pic.a(memset-avx512-unaligned-erms.os)
                              /home/saraj/Desktop/glibc_modified/build/libc_pic.a(memset.os) (__memset_avx512_unaligned)
/home/saraj/Desktop/glibc_modified/build/libc_pic.a(memset-erms.os)
                              /home/saraj/Desktop/glibc_modified/build/libc_pic.a(memset.os) (__memset_erms)
/home/saraj/Desktop/glibc_modified/build/libc_pic.a(memset-evex-unaligned-erms.os)
                              /home/saraj/Desktop/glibc_modified/build/libc_pic.a(memset.os) (__memset_evex_unaligned)
/home/saraj/Desktop/glibc_modified/build/libc_pic.a(memset-sse2-unaligned-erms.os)
                              /home/saraj/Desktop/glibc_modified/build/libc_pic.a(memset.os) (__memset_sse2_unaligned)
/home/saraj/Desktop/glibc_modified/build/libc_pic.a(stpcpy-avx2.os)
                              /home/saraj/Desktop/glibc_modified/build/libc_pic.a(stpcpy.os) (__stpcpy_avx2)
/home/saraj/Desktop/glibc_modified/build/libc_pic.a(stpcpy-avx2-rtm.os)
                              /home/saraj/Desktop/glibc_modified/build/libc_pic.a(stpcpy.os) (__stpcpy_avx2_rtm)
/home/saraj/Desktop/glibc_modified/build/libc_pic.a(stpcpy-evex.os)
                              /home/saraj/Desktop/glibc_modified/build/libc_pic.a(stpcpy.os) (__stpcpy_evex)
/home/saraj/Desktop/glibc_modified/build/libc_pic.a(stpcpy-sse2.os)
                              /home/saraj/Desktop/glibc_modified/build/libc_pic.a(stpcpy.os) (__stpcpy_sse2)
/home/saraj/Desktop/glibc_modified/build/libc_pic.a(stpcpy-sse2-unaligned.os)
                              /home/saraj/Desktop/glibc_modified/build/libc_pic.a(stpcpy.os) (__stpcpy_sse2_unaligned)
/home/saraj/Desktop/glibc_modified/build/libc_pic.a(strchr-avx2.os)
                              /home/saraj/Desktop/glibc_modified/build/libc_pic.a(strchr.os) (__strchr_avx2)
/home/saraj/Desktop/glibc_modified/build/libc_pic.a(strchr-avx2-rtm.os)
                              /home/saraj/Desktop/glibc_modified/build/libc_pic.a(strchr.os) (__strchr_avx2_rtm)
/home/saraj/Desktop/glibc_modified/build/libc_pic.a(strchr-evex.os)
                              /home/saraj/Desktop/glibc_modified/build/libc_pic.a(strchr.os) (__strchr_evex)
/home/saraj/Desktop/glibc_modified/build/libc_pic.a(strchr-sse2.os)
                              /home/saraj/Desktop/glibc_modified/build/libc_pic.a(strchr.os) (__strchr_sse2)
/home/saraj/Desktop/glibc_modified/build/libc_pic.a(strchr-sse2-no-bsf.os)
                              /home/saraj/Desktop/glibc_modified/build/libc_pic.a(strchr.os) (__strchr_sse2_no_bsf)
/home/saraj/Desktop/glibc_modified/build/libc_pic.a(strcmp-avx2.os)
                              /home/saraj/Desktop/glibc_modified/build/libc_pic.a(strcmp.os) (__strcmp_avx2)
/home/saraj/Desktop/glibc_modified/build/libc_pic.a(strcmp-avx2-rtm.os)
                              /home/saraj/Desktop/glibc_modified/build/libc_pic.a(strcmp.os) (__strcmp_avx2_rtm)
/home/saraj/Desktop/glibc_modified/build/libc_pic.a(strcmp-evex.os)
                              /home/saraj/Desktop/glibc_modified/build/libc_pic.a(strcmp.os) (__strcmp_evex)
/home/saraj/Desktop/glibc_modified/build/libc_pic.a(strcmp-sse2.os)
                              /home/saraj/Desktop/glibc_modified/build/libc_pic.a(strcmp.os) (__strcmp_sse2)
/home/saraj/Desktop/glibc_modified/build/libc_pic.a(strcmp-sse2-unaligned.os)
                              /home/saraj/Desktop/glibc_modified/build/libc_pic.a(strcmp.os) (__strcmp_sse2_unaligned)
/home/saraj/Desktop/glibc_modified/build/libc_pic.a(strcmp-sse4_2.os)
                              /home/saraj/Desktop/glibc_modified/build/libc_pic.a(strcmp.os) (__strcmp_sse42)
/home/saraj/Desktop/glibc_modified/build/libc_pic.a(strcspn-sse4.os)
                              /home/saraj/Desktop/glibc_modified/build/libc_pic.a(strcspn.os) (__strcspn_sse42)
/home/saraj/Desktop/glibc_modified/build/libc_pic.a(strlen-avx2.os)
                              /home/saraj/Desktop/glibc_modified/build/libc_pic.a(strlen.os) (__strlen_avx2)
/home/saraj/Desktop/glibc_modified/build/libc_pic.a(strlen-avx2-rtm.os)
                              /home/saraj/Desktop/glibc_modified/build/libc_pic.a(strlen.os) (__strlen_avx2_rtm)
/home/saraj/Desktop/glibc_modified/build/libc_pic.a(strlen-evex.os)
                              /home/saraj/Desktop/glibc_modified/build/libc_pic.a(strlen.os) (__strlen_evex)
/home/saraj/Desktop/glibc_modified/build/libc_pic.a(strlen-sse2.os)
                              /home/saraj/Desktop/glibc_modified/build/libc_pic.a(strlen.os) (__strlen_sse2)
/home/saraj/Desktop/glibc_modified/build/libc_pic.a(strncmp-avx2.os)
                              /home/saraj/Desktop/glibc_modified/build/libc_pic.a(strncmp.os) (__strncmp_avx2)
/home/saraj/Desktop/glibc_modified/build/libc_pic.a(strncmp-avx2-rtm.os)
                              /home/saraj/Desktop/glibc_modified/build/libc_pic.a(strncmp.os) (__strncmp_avx2_rtm)
/home/saraj/Desktop/glibc_modified/build/libc_pic.a(strncmp-evex.os)
                              /home/saraj/Desktop/glibc_modified/build/libc_pic.a(strncmp.os) (__strncmp_evex)
/home/saraj/Desktop/glibc_modified/build/libc_pic.a(strncmp-sse2.os)
                              /home/saraj/Desktop/glibc_modified/build/libc_pic.a(strncmp.os) (__strncmp_sse2)
/home/saraj/Desktop/glibc_modified/build/libc_pic.a(strncmp-sse4_2.os)
                              /home/saraj/Desktop/glibc_modified/build/libc_pic.a(strncmp.os) (__strncmp_sse42)
/home/saraj/Desktop/glibc_modified/build/libc_pic.a(strnlen-avx2.os)
                              /home/saraj/Desktop/glibc_modified/build/libc_pic.a(strnlen.os) (__strnlen_avx2)
/home/saraj/Desktop/glibc_modified/build/libc_pic.a(strnlen-avx2-rtm.os)
                              /home/saraj/Desktop/glibc_modified/build/libc_pic.a(strnlen.os) (__strnlen_avx2_rtm)
/home/saraj/Desktop/glibc_modified/build/libc_pic.a(strnlen-evex.os)
                              /home/saraj/Desktop/glibc_modified/build/libc_pic.a(strnlen.os) (__strnlen_evex)
/home/saraj/Desktop/glibc_modified/build/libc_pic.a(strnlen-sse2.os)
                              /home/saraj/Desktop/glibc_modified/build/libc_pic.a(strnlen.os) (__strnlen_sse2)
/home/saraj/Desktop/glibc_modified/build/libc_pic.a(varshift.os)
                              /home/saraj/Desktop/glibc_modified/build/libc_pic.a(strcspn-sse4.os) (___m128i_shift_right)
/home/saraj/Desktop/glibc_modified/build/libc_pic.a(strcspn-generic.os)
                              /home/saraj/Desktop/glibc_modified/build/libc_pic.a(strcspn.os) (__strcspn_generic)
/home/saraj/Desktop/glibc_modified/build/libc_pic.a(cacheinfo.os)
                              /home/saraj/Desktop/glibc_modified/build/libc_pic.a(memmove-avx512-no-vzeroupper.os) (__x86_shared_cache_size_half)
/home/saraj/Desktop/glibc_modified/build/libc_pic.a(closedir.os)
                              /home/saraj/Desktop/glibc_modified/build/elf/dl-allobjs.os (__closedir)
/home/saraj/Desktop/glibc_modified/build/libc_pic.a(fdopendir.os)
                              /home/saraj/Desktop/glibc_modified/build/elf/dl-allobjs.os (__fdopendir)
/home/saraj/Desktop/glibc_modified/build/libc_pic.a(readdir64.os)
                              /home/saraj/Desktop/glibc_modified/build/elf/dl-allobjs.os (__readdir64)
/home/saraj/Desktop/glibc_modified/build/libc_pic.a(rewinddir.os)
                              /home/saraj/Desktop/glibc_modified/build/elf/dl-allobjs.os (__rewinddir)
/home/saraj/Desktop/glibc_modified/build/libc_pic.a(_exit.os)
                              /home/saraj/Desktop/glibc_modified/build/elf/dl-allobjs.os (__GI__exit)
/home/saraj/Desktop/glibc_modified/build/libc_pic.a(getpid.os)
                              /home/saraj/Desktop/glibc_modified/build/elf/dl-allobjs.os (__getpid)
/home/saraj/Desktop/glibc_modified/build/libc_pic.a(uname.os)
                              /home/saraj/Desktop/glibc_modified/build/elf/dl-allobjs.os (__uname)
/home/saraj/Desktop/glibc_modified/build/libc_pic.a(environ.os)
                              /home/saraj/Desktop/glibc_modified/build/libc_pic.a(getenv.os) (__environ_counter)
/home/saraj/Desktop/glibc_modified/build/libc_pic.a(access.os)
                              /home/saraj/Desktop/glibc_modified/build/elf/dl-allobjs.os (__access)
/home/saraj/Desktop/glibc_modified/build/libc_pic.a(fstat64.os)
                              /home/saraj/Desktop/glibc_modified/build/elf/dl-allobjs.os (__GI___fstat64)
/home/saraj/Desktop/glibc_modified/build/libc_pic.a(fstatat64.os)
                              /home/saraj/Desktop/glibc_modified/build/elf/dl-allobjs.os (__GI___fstatat64)
/home/saraj/Desktop/glibc_modified/build/libc_pic.a(lseek64.os)
                              /home/saraj/Desktop/glibc_modified/build/libc_pic.a(rewinddir.os) (__GI___lseek)
/home/saraj/Desktop/glibc_modified/build/libc_pic.a(lstat64.os)
                              /home/saraj/Desktop/glibc_modified/build/elf/dl-allobjs.os (__GI___lstat64)
/home/saraj/Desktop/glibc_modified/build/libc_pic.a(openat64.os)
                              /home/saraj/Desktop/glibc_modified/build/elf/dl-allobjs.os (__openat64)
/home/saraj/Desktop/glibc_modified/build/libc_pic.a(stat64.os)
                              /home/saraj/Desktop/glibc_modified/build/elf/dl-allobjs.os (__GI___stat64)
/home/saraj/Desktop/glibc_modified/build/libc_pic.a(close_nocancel.os)
                              /home/saraj/Desktop/glibc_modified/build/elf/dl-allobjs.os (__GI___close_nocancel)
/home/saraj/Desktop/glibc_modified/build/libc_pic.a(close_nocancel_nostatus.os)
                              /home/saraj/Desktop/glibc_modified/build/elf/dl-allobjs.os (__GI___close_nocancel_nostatus)
/home/saraj/Desktop/glibc_modified/build/libc_pic.a(fcntl_nocancel.os)
                              /home/saraj/Desktop/glibc_modified/build/elf/dl-allobjs.os (__GI___fcntl64_nocancel)
/home/saraj/Desktop/glibc_modified/build/libc_pic.a(open64_nocancel.os)
                              /home/saraj/Desktop/glibc_modified/build/elf/dl-allobjs.os (__GI___open64_nocancel)
/home/saraj/Desktop/glibc_modified/build/libc_pic.a(pread64_nocancel.os)
                              /home/saraj/Desktop/glibc_modified/build/elf/dl-allobjs.os (__GI___pread64_nocancel)
/home/saraj/Desktop/glibc_modified/build/libc_pic.a(read_nocancel.os)
                              /home/saraj/Desktop/glibc_modified/build/elf/dl-allobjs.os (__GI___read_nocancel)
/home/saraj/Desktop/glibc_modified/build/libc_pic.a(write_nocancel.os)
                              /home/saraj/Desktop/glibc_modified/build/elf/dl-allobjs.os (__GI___write_nocancel)
/home/saraj/Desktop/glibc_modified/build/libc_pic.a(fd_to_filename.os)
                              /home/saraj/Desktop/glibc_modified/build/elf/dl-allobjs.os (__fd_to_filename)
/home/saraj/Desktop/glibc_modified/build/libc_pic.a(mmap64.os)
                              /home/saraj/Desktop/glibc_modified/build/elf/dl-allobjs.os (__mmap)
/home/saraj/Desktop/glibc_modified/build/libc_pic.a(mprotect.os)
                              /home/saraj/Desktop/glibc_modified/build/elf/dl-allobjs.os (__mprotect)
/home/saraj/Desktop/glibc_modified/build/libc_pic.a(munmap.os)
                              /home/saraj/Desktop/glibc_modified/build/elf/dl-allobjs.os (__munmap)
/home/saraj/Desktop/glibc_modified/build/libc_pic.a(setvmaname.os)
                              /home/saraj/Desktop/glibc_modified/build/elf/dl-allobjs.os (__is_decorate_maps_enabled)
/home/saraj/Desktop/glibc_modified/build/libc_pic.a(prof-freq.os)
                              /home/saraj/Desktop/glibc_modified/build/elf/dl-allobjs.os (__profile_frequency)
/home/saraj/Desktop/glibc_modified/build/libc_pic.a(profil.os)
                              /home/saraj/Desktop/glibc_modified/build/elf/dl-allobjs.os (__profil)
/home/saraj/Desktop/glibc_modified/build/libc_pic.a(dl-addr-obj.os)
                              /home/saraj/Desktop/glibc_modified/build/elf/dl-allobjs.os (_dl_addr_inside_object)
/home/saraj/Desktop/glibc_modified/build/libc_pic.a(libc_sigaction.os)
                              /home/saraj/Desktop/glibc_modified/build/libc_pic.a(profil.os) (__GI___libc_sigaction)
/home/saraj/Desktop/glibc_modified/build/libc_pic.a(errname.os)
                              /home/saraj/Desktop/glibc_modified/build/libc_pic.a(strerrorname_np.os) (__get_errname)
/home/saraj/Desktop/glibc_modified/build/libc_pic.a(strchrnul.os)
                              /home/saraj/Desktop/glibc_modified/build/libc_pic.a(strcspn-generic.os) (__GI___strchrnul)
/home/saraj/Desktop/glibc_modified/build/libc_pic.a(strchrnul-avx2.os)
                              /home/saraj/Desktop/glibc_modified/build/libc_pic.a(strchrnul.os) (__strchrnul_avx2)
/home/saraj/Desktop/glibc_modified/build/libc_pic.a(strchrnul-avx2-rtm.os)
                              /home/saraj/Desktop/glibc_modified/build/libc_pic.a(strchrnul.os) (__strchrnul_avx2_rtm)
/home/saraj/Desktop/glibc_modified/build/libc_pic.a(strchrnul-evex.os)
                              /home/saraj/Desktop/glibc_modified/build/libc_pic.a(strchrnul.os) (__strchrnul_evex)
/home/saraj/Desktop/glibc_modified/build/libc_pic.a(strchrnul-sse2.os)
                              /home/saraj/Desktop/glibc_modified/build/libc_pic.a(strchrnul.os) (__strchrnul_sse2)
/home/saraj/Desktop/glibc_modified/build/libc_pic.a(setitimer.os)
                              /home/saraj/Desktop/glibc_modified/build/libc_pic.a(profil.os) (__setitimer)
/home/saraj/Desktop/glibc_modified/build/libc_pic.a(getdents64.os)
                              /home/saraj/Desktop/glibc_modified/build/libc_pic.a(readdir64.os) (__GI___getdents64)

Merging program properties

Updated property 0xc0010001 (0x2fb) to merge /home/saraj/Desktop/glibc_modified/build/elf/librtld.mapT.o (0x1) and /home/saraj/Desktop/glibc_modified/build/elf/dl-allobjs.os (0x2fb)
Updated property 0xc0010002 (0xd) to merge /home/saraj/Desktop/glibc_modified/build/elf/librtld.mapT.o (0x0) and /home/saraj/Desktop/glibc_modified/build/elf/dl-allobjs.os (0xd)
Removed property 0xc0000002 to merge /home/saraj/Desktop/glibc_modified/build/elf/librtld.mapT.o (not found) and /home/saraj/Desktop/glibc_modified/build/elf/dl-allobjs.os (0x3)
Updated property 0xc0010001 (0x2fb) to merge /home/saraj/Desktop/glibc_modified/build/elf/librtld.mapT.o (0x2fb) and /home/saraj/Desktop/glibc_modified/build/libc_pic.a(check_fds.os) (0x1)
Updated property 0xc0010002 (0xd) to merge /home/saraj/Desktop/glibc_modified/build/elf/librtld.mapT.o (0xd) and /home/saraj/Desktop/glibc_modified/build/libc_pic.a(check_fds.os) (0x1)
Removed property 0xc0000002 to merge /home/saraj/Desktop/glibc_modified/build/elf/librtld.mapT.o (not found) and /home/saraj/Desktop/glibc_modified/build/libc_pic.a(check_fds.os) (0x3)
Updated property 0xc0010001 (0x2fb) to merge /home/saraj/Desktop/glibc_modified/build/elf/librtld.mapT.o (0x2fb) and /home/saraj/Desktop/glibc_modified/build/libc_pic.a(errno.os) (0x1)
Updated property 0xc0010002 (0xd) to merge /home/saraj/Desktop/glibc_modified/build/elf/librtld.mapT.o (0xd) and /home/saraj/Desktop/glibc_modified/build/libc_pic.a(errno.os) (0x0)
Removed property 0xc0000002 to merge /home/saraj/Desktop/glibc_modified/build/elf/librtld.mapT.o (not found) and /home/saraj/Desktop/glibc_modified/build/libc_pic.a(errno.os) (0x3)
Updated property 0xc0010001 (0x2fb) to merge /home/saraj/Desktop/glibc_modified/build/elf/librtld.mapT.o (0x2fb) and /home/saraj/Desktop/glibc_modified/build/libc_pic.a(setjmp.os) (0x1)
Updated property 0xc0010002 (0xd) to merge /home/saraj/Desktop/glibc_modified/build/elf/librtld.mapT.o (0xd) and /home/saraj/Desktop/glibc_modified/build/libc_pic.a(setjmp.os) (0x0)
Removed property 0xc0000002 to merge /home/saraj/Desktop/glibc_modified/build/elf/librtld.mapT.o (not found) and /home/saraj/Desktop/glibc_modified/build/libc_pic.a(setjmp.os) (0x3)
Updated property 0xc0010001 (0x2fb) to merge /home/saraj/Desktop/glibc_modified/build/elf/librtld.mapT.o (0x2fb) and /home/saraj/Desktop/glibc_modified/build/libc_pic.a(__longjmp.os) (0x1)
Updated property 0xc0010002 (0xd) to merge /home/saraj/Desktop/glibc_modified/build/elf/librtld.mapT.o (0xd) and /home/saraj/Desktop/glibc_modified/build/libc_pic.a(__longjmp.os) (0x1)
Removed property 0xc0000002 to merge /home/saraj/Desktop/glibc_modified/build/elf/librtld.mapT.o (not found) and /home/saraj/Desktop/glibc_modified/build/libc_pic.a(__longjmp.os) (0x3)
Updated property 0xc0010001 (0x2fb) to merge /home/saraj/Desktop/glibc_modified/build/elf/librtld.mapT.o (0x2fb) and /home/saraj/Desktop/glibc_modified/build/libc_pic.a(getenv.os) (0x1)
Updated property 0xc0010002 (0xd) to merge /home/saraj/Desktop/glibc_modified/build/elf/librtld.mapT.o (0xd) and /home/saraj/Desktop/glibc_modified/build/libc_pic.a(getenv.os) (0x0)
Removed property 0xc0000002 to merge /home/saraj/Desktop/glibc_modified/build/elf/librtld.mapT.o (not found) and /home/saraj/Desktop/glibc_modified/build/libc_pic.a(getenv.os) (0x3)
Updated property 0xc0010001 (0x2fb) to merge /home/saraj/Desktop/glibc_modified/build/elf/librtld.mapT.o (0x2fb) and /home/saraj/Desktop/glibc_modified/build/libc_pic.a(_fitoa_word.os) (0x1)
Updated property 0xc0010002 (0xd) to merge /home/saraj/Desktop/glibc_modified/build/elf/librtld.mapT.o (0xd) and /home/saraj/Desktop/glibc_modified/build/libc_pic.a(_fitoa_word.os) (0x1)
Removed property 0xc0000002 to merge /home/saraj/Desktop/glibc_modified/build/elf/librtld.mapT.o (not found) and /home/saraj/Desktop/glibc_modified/build/libc_pic.a(_fitoa_word.os) (0x3)
Updated property 0xc0010001 (0x2fb) to merge /home/saraj/Desktop/glibc_modified/build/elf/librtld.mapT.o (0x2fb) and /home/saraj/Desktop/glibc_modified/build/libc_pic.a(itoa-udigits.os) (0x1)
Updated property 0xc0010002 (0xd) to merge /home/saraj/Desktop/glibc_modified/build/elf/librtld.mapT.o (0xd) and /home/saraj/Desktop/glibc_modified/build/libc_pic.a(itoa-udigits.os) (0x0)
Removed property 0xc0000002 to merge /home/saraj/Desktop/glibc_modified/build/elf/librtld.mapT.o (not found) and /home/saraj/Desktop/glibc_modified/build/libc_pic.a(itoa-udigits.os) (0x3)
Updated property 0xc0010001 (0x2fb) to merge /home/saraj/Desktop/glibc_modified/build/elf/librtld.mapT.o (0x2fb) and /home/saraj/Desktop/glibc_modified/build/libc_pic.a(lowlevellock.os) (0x1)
Updated property 0xc0010002 (0xd) to merge /home/saraj/Desktop/glibc_modified/build/elf/librtld.mapT.o (0xd) and /home/saraj/Desktop/glibc_modified/build/libc_pic.a(lowlevellock.os) (0x1)
Removed property 0xc0000002 to merge /home/saraj/Desktop/glibc_modified/build/elf/librtld.mapT.o (not found) and /home/saraj/Desktop/glibc_modified/build/libc_pic.a(lowlevellock.os) (0x3)
Updated property 0xc0010001 (0x2fb) to merge /home/saraj/Desktop/glibc_modified/build/elf/librtld.mapT.o (0x2fb) and /home/saraj/Desktop/glibc_modified/build/libc_pic.a(scratch_buffer_set_array_size.os) (0x1)
Updated property 0xc0010002 (0xd) to merge /home/saraj/Desktop/glibc_modified/build/elf/librtld.mapT.o (0xd) and /home/saraj/Desktop/glibc_modified/build/libc_pic.a(scratch_buffer_set_array_size.os) (0x0)
Removed property 0xc0000002 to merge /home/saraj/Desktop/glibc_modified/build/elf/librtld.mapT.o (not found) and /home/saraj/Desktop/glibc_modified/build/libc_pic.a(scratch_buffer_set_array_size.os) (0x3)
Updated property 0xc0010001 (0x2fb) to merge /home/saraj/Desktop/glibc_modified/build/elf/librtld.mapT.o (0x2fb) and /home/saraj/Desktop/glibc_modified/build/libc_pic.a(memchr.os) (0x1)
Updated property 0xc0010002 (0xd) to merge /home/saraj/Desktop/glibc_modified/build/elf/librtld.mapT.o (0xd) and /home/saraj/Desktop/glibc_modified/build/libc_pic.a(memchr.os) (0x1)
Removed property 0xc0000002 to merge /home/saraj/Desktop/glibc_modified/build/elf/librtld.mapT.o (not found) and /home/saraj/Desktop/glibc_modified/build/libc_pic.a(memchr.os) (0x3)
Updated property 0xc0010001 (0x2fb) to merge /home/saraj/Desktop/glibc_modified/build/elf/librtld.mapT.o (0x2fb) and /home/saraj/Desktop/glibc_modified/build/libc_pic.a(memcmp.os) (0x1)
Updated property 0xc0010002 (0xd) to merge /home/saraj/Desktop/glibc_modified/build/elf/librtld.mapT.o (0xd) and /home/saraj/Desktop/glibc_modified/build/libc_pic.a(memcmp.os) (0x1)
Removed property 0xc0000002 to merge /home/saraj/Desktop/glibc_modified/build/elf/librtld.mapT.o (not found) and /home/saraj/Desktop/glibc_modified/build/libc_pic.a(memcmp.os) (0x3)
Updated property 0xc0010001 (0x2fb) to merge /home/saraj/Desktop/glibc_modified/build/elf/librtld.mapT.o (0x2fb) and /home/saraj/Desktop/glibc_modified/build/libc_pic.a(memcpy.os) (0x1)
Updated property 0xc0010002 (0xd) to merge /home/saraj/Desktop/glibc_modified/build/elf/librtld.mapT.o (0xd) and /home/saraj/Desktop/glibc_modified/build/libc_pic.a(memcpy.os) (0x1)
Removed property 0xc0000002 to merge /home/saraj/Desktop/glibc_modified/build/elf/librtld.mapT.o (not found) and /home/saraj/Desktop/glibc_modified/build/libc_pic.a(memcpy.os) (0x3)
Updated property 0xc0010001 (0x2fb) to merge /home/saraj/Desktop/glibc_modified/build/elf/librtld.mapT.o (0x2fb) and /home/saraj/Desktop/glibc_modified/build/libc_pic.a(memmove.os) (0x1)
Updated property 0xc0010002 (0xd) to merge /home/saraj/Desktop/glibc_modified/build/elf/librtld.mapT.o (0xd) and /home/saraj/Desktop/glibc_modified/build/libc_pic.a(memmove.os) (0x1)
Removed property 0xc0000002 to merge /home/saraj/Desktop/glibc_modified/build/elf/librtld.mapT.o (not found) and /home/saraj/Desktop/glibc_modified/build/libc_pic.a(memmove.os) (0x3)
Updated property 0xc0010001 (0x2fb) to merge /home/saraj/Desktop/glibc_modified/build/elf/librtld.mapT.o (0x2fb) and /home/saraj/Desktop/glibc_modified/build/libc_pic.a(mempcpy.os) (0x1)
Updated property 0xc0010002 (0xd) to merge /home/saraj/Desktop/glibc_modified/build/elf/librtld.mapT.o (0xd) and /home/saraj/Desktop/glibc_modified/build/libc_pic.a(mempcpy.os) (0x1)
Removed property 0xc0000002 to merge /home/saraj/Desktop/glibc_modified/build/elf/librtld.mapT.o (not found) and /home/saraj/Desktop/glibc_modified/build/libc_pic.a(mempcpy.os) (0x3)
Updated property 0xc0010001 (0x2fb) to merge /home/saraj/Desktop/glibc_modified/build/elf/librtld.mapT.o (0x2fb) and /home/saraj/Desktop/glibc_modified/build/libc_pic.a(memset.os) (0x1)
Updated property 0xc0010002 (0xd) to merge /home/saraj/Desktop/glibc_modified/build/elf/librtld.mapT.o (0xd) and /home/saraj/Desktop/glibc_modified/build/libc_pic.a(memset.os) (0x1)
Removed property 0xc0000002 to merge /home/saraj/Desktop/glibc_modified/build/elf/librtld.mapT.o (not found) and /home/saraj/Desktop/glibc_modified/build/libc_pic.a(memset.os) (0x3)
Updated property 0xc0010001 (0x2fb) to merge /home/saraj/Desktop/glibc_modified/build/elf/librtld.mapT.o (0x2fb) and /home/saraj/Desktop/glibc_modified/build/libc_pic.a(stpcpy.os) (0x1)
Updated property 0xc0010002 (0xd) to merge /home/saraj/Desktop/glibc_modified/build/elf/librtld.mapT.o (0xd) and /home/saraj/Desktop/glibc_modified/build/libc_pic.a(stpcpy.os) (0x1)
Removed property 0xc0000002 to merge /home/saraj/Desktop/glibc_modified/build/elf/librtld.mapT.o (not found) and /home/saraj/Desktop/glibc_modified/build/libc_pic.a(stpcpy.os) (0x3)
Updated property 0xc0010001 (0x2fb) to merge /home/saraj/Desktop/glibc_modified/build/elf/librtld.mapT.o (0x2fb) and /home/saraj/Desktop/glibc_modified/build/libc_pic.a(strchr.os) (0x1)
Updated property 0xc0010002 (0xd) to merge /home/saraj/Desktop/glibc_modified/build/elf/librtld.mapT.o (0xd) and /home/saraj/Desktop/glibc_modified/build/libc_pic.a(strchr.os) (0x1)
Removed property 0xc0000002 to merge /home/saraj/Desktop/glibc_modified/build/elf/librtld.mapT.o (not found) and /home/saraj/Desktop/glibc_modified/build/libc_pic.a(strchr.os) (0x3)
Updated property 0xc0010001 (0x2fb) to merge /home/saraj/Desktop/glibc_modified/build/elf/librtld.mapT.o (0x2fb) and /home/saraj/Desktop/glibc_modified/build/libc_pic.a(strcmp.os) (0x1)
Updated property 0xc0010002 (0xd) to merge /home/saraj/Desktop/glibc_modified/build/elf/librtld.mapT.o (0xd) and /home/saraj/Desktop/glibc_modified/build/libc_pic.a(strcmp.os) (0x1)
Removed property 0xc0000002 to merge /home/saraj/Desktop/glibc_modified/build/elf/librtld.mapT.o (not found) and /home/saraj/Desktop/glibc_modified/build/libc_pic.a(strcmp.os) (0x3)
Updated property 0xc0010001 (0x2fb) to merge /home/saraj/Desktop/glibc_modified/build/elf/librtld.mapT.o (0x2fb) and /home/saraj/Desktop/glibc_modified/build/libc_pic.a(strcspn.os) (0x1)
Updated property 0xc0010002 (0xd) to merge /home/saraj/Desktop/glibc_modified/build/elf/librtld.mapT.o (0xd) and /home/saraj/Desktop/glibc_modified/build/libc_pic.a(strcspn.os) (0x1)
Removed property 0xc0000002 to merge /home/saraj/Desktop/glibc_modified/build/elf/librtld.mapT.o (not found) and /home/saraj/Desktop/glibc_modified/build/libc_pic.a(strcspn.os) (0x3)
Updated property 0xc0010001 (0x2fb) to merge /home/saraj/Desktop/glibc_modified/build/elf/librtld.mapT.o (0x2fb) and /home/saraj/Desktop/glibc_modified/build/libc_pic.a(strdup.os) (0x1)
Updated property 0xc0010002 (0xd) to merge /home/saraj/Desktop/glibc_modified/build/elf/librtld.mapT.o (0xd) and /home/saraj/Desktop/glibc_modified/build/libc_pic.a(strdup.os) (0x0)
Removed property 0xc0000002 to merge /home/saraj/Desktop/glibc_modified/build/elf/librtld.mapT.o (not found) and /home/saraj/Desktop/glibc_modified/build/libc_pic.a(strdup.os) (0x3)
Updated property 0xc0010001 (0x2fb) to merge /home/saraj/Desktop/glibc_modified/build/elf/librtld.mapT.o (0x2fb) and /home/saraj/Desktop/glibc_modified/build/libc_pic.a(strerrorname_np.os) (0x1)
Updated property 0xc0010002 (0xd) to merge /home/saraj/Desktop/glibc_modified/build/elf/librtld.mapT.o (0xd) and /home/saraj/Desktop/glibc_modified/build/libc_pic.a(strerrorname_np.os) (0x0)
Removed property 0xc0000002 to merge /home/saraj/Desktop/glibc_modified/build/elf/librtld.mapT.o (not found) and /home/saraj/Desktop/glibc_modified/build/libc_pic.a(strerrorname_np.os) (0x3)
Updated property 0xc0010001 (0x2fb) to merge /home/saraj/Desktop/glibc_modified/build/elf/librtld.mapT.o (0x2fb) and /home/saraj/Desktop/glibc_modified/build/libc_pic.a(strlen.os) (0x1)
Updated property 0xc0010002 (0xd) to merge /home/saraj/Desktop/glibc_modified/build/elf/librtld.mapT.o (0xd) and /home/saraj/Desktop/glibc_modified/build/libc_pic.a(strlen.os) (0x1)
Removed property 0xc0000002 to merge /home/saraj/Desktop/glibc_modified/build/elf/librtld.mapT.o (not found) and /home/saraj/Desktop/glibc_modified/build/libc_pic.a(strlen.os) (0x3)
Updated property 0xc0010001 (0x2fb) to merge /home/saraj/Desktop/glibc_modified/build/elf/librtld.mapT.o (0x2fb) and /home/saraj/Desktop/glibc_modified/build/libc_pic.a(strncmp.os) (0x1)
Updated property 0xc0010002 (0xd) to merge /home/saraj/Desktop/glibc_modified/build/elf/librtld.mapT.o (0xd) and /home/saraj/Desktop/glibc_modified/build/libc_pic.a(strncmp.os) (0x1)
Removed property 0xc0000002 to merge /home/saraj/Desktop/glibc_modified/build/elf/librtld.mapT.o (not found) and /home/saraj/Desktop/glibc_modified/build/libc_pic.a(strncmp.os) (0x3)
Updated property 0xc0010001 (0x2fb) to merge /home/saraj/Desktop/glibc_modified/build/elf/librtld.mapT.o (0x2fb) and /home/saraj/Desktop/glibc_modified/build/libc_pic.a(strnlen.os) (0x1)
Updated property 0xc0010002 (0xd) to merge /home/saraj/Desktop/glibc_modified/build/elf/librtld.mapT.o (0xd) and /home/saraj/Desktop/glibc_modified/build/libc_pic.a(strnlen.os) (0x1)
Removed property 0xc0000002 to merge /home/saraj/Desktop/glibc_modified/build/elf/librtld.mapT.o (not found) and /home/saraj/Desktop/glibc_modified/build/libc_pic.a(strnlen.os) (0x3)
Updated property 0xc0010001 (0x2fb) to merge /home/saraj/Desktop/glibc_modified/build/elf/librtld.mapT.o (0x2fb) and /home/saraj/Desktop/glibc_modified/build/libc_pic.a(memchr-avx2.os) (0x19)
Updated property 0xc0010002 (0xd) to merge /home/saraj/Desktop/glibc_modified/build/elf/librtld.mapT.o (0xd) and /home/saraj/Desktop/glibc_modified/build/libc_pic.a(memchr-avx2.os) (0x5)
Removed property 0xc0000002 to merge /home/saraj/Desktop/glibc_modified/build/elf/librtld.mapT.o (not found) and /home/saraj/Desktop/glibc_modified/build/libc_pic.a(memchr-avx2.os) (0x3)
Updated property 0xc0010001 (0x2fb) to merge /home/saraj/Desktop/glibc_modified/build/elf/librtld.mapT.o (0x2fb) and /home/saraj/Desktop/glibc_modified/build/libc_pic.a(memchr-avx2-rtm.os) (0x19)
Updated property 0xc0010002 (0xd) to merge /home/saraj/Desktop/glibc_modified/build/elf/librtld.mapT.o (0xd) and /home/saraj/Desktop/glibc_modified/build/libc_pic.a(memchr-avx2-rtm.os) (0x5)
Removed property 0xc0000002 to merge /home/saraj/Desktop/glibc_modified/build/elf/librtld.mapT.o (not found) and /home/saraj/Desktop/glibc_modified/build/libc_pic.a(memchr-avx2-rtm.os) (0x3)
Updated property 0xc0010001 (0xafb) to merge /home/saraj/Desktop/glibc_modified/build/elf/librtld.mapT.o (0x2fb) and /home/saraj/Desktop/glibc_modified/build/libc_pic.a(memchr-evex.os) (0x839)
Removed property 0xc0000002 to merge /home/saraj/Desktop/glibc_modified/build/elf/librtld.mapT.o (not found) and /home/saraj/Desktop/glibc_modified/build/libc_pic.a(memchr-evex.os) (0x3)
Updated property 0xc0010001 (0xafb) to merge /home/saraj/Desktop/glibc_modified/build/elf/librtld.mapT.o (0xafb) and /home/saraj/Desktop/glibc_modified/build/libc_pic.a(memchr-evex-rtm.os) (0x839)
Removed property 0xc0000002 to merge /home/saraj/Desktop/glibc_modified/build/elf/librtld.mapT.o (not found) and /home/saraj/Desktop/glibc_modified/build/libc_pic.a(memchr-evex-rtm.os) (0x3)
Updated property 0xc0010001 (0xafb) to merge /home/saraj/Desktop/glibc_modified/build/elf/librtld.mapT.o (0xafb) and /home/saraj/Desktop/glibc_modified/build/libc_pic.a(memchr-sse2.os) (0x9)
Updated property 0xc0010002 (0xd) to merge /home/saraj/Desktop/glibc_modified/build/elf/librtld.mapT.o (0xd) and /home/saraj/Desktop/glibc_modified/build/libc_pic.a(memchr-sse2.os) (0x1)
Removed property 0xc0000002 to merge /home/saraj/Desktop/glibc_modified/build/elf/librtld.mapT.o (not found) and /home/saraj/Desktop/glibc_modified/build/libc_pic.a(memchr-sse2.os) (0x3)
Updated property 0xc0010001 (0xafb) to merge /home/saraj/Desktop/glibc_modified/build/elf/librtld.mapT.o (0xafb) and /home/saraj/Desktop/glibc_modified/build/libc_pic.a(memcmp-avx2-movbe.os) (0x19)
Updated property 0xc0010002 (0xd) to merge /home/saraj/Desktop/glibc_modified/build/elf/librtld.mapT.o (0xd) and /home/saraj/Desktop/glibc_modified/build/libc_pic.a(memcmp-avx2-movbe.os) (0x5)
Removed property 0xc0000002 to merge /home/saraj/Desktop/glibc_modified/build/elf/librtld.mapT.o (not found) and /home/saraj/Desktop/glibc_modified/build/libc_pic.a(memcmp-avx2-movbe.os) (0x3)
Updated property 0xc0010001 (0xafb) to merge /home/saraj/Desktop/glibc_modified/build/elf/librtld.mapT.o (0xafb) and /home/saraj/Desktop/glibc_modified/build/libc_pic.a(memcmp-avx2-movbe-rtm.os) (0x19)
Updated property 0xc0010002 (0xd) to merge /home/saraj/Desktop/glibc_modified/build/elf/librtld.mapT.o (0xd) and /home/saraj/Desktop/glibc_modified/build/libc_pic.a(memcmp-avx2-movbe-rtm.os) (0x5)
Removed property 0xc0000002 to merge /home/saraj/Desktop/glibc_modified/build/elf/librtld.mapT.o (not found) and /home/saraj/Desktop/glibc_modified/build/libc_pic.a(memcmp-avx2-movbe-rtm.os) (0x3)
Updated property 0xc0010001 (0xafb) to merge /home/saraj/Desktop/glibc_modified/build/elf/librtld.mapT.o (0xafb) and /home/saraj/Desktop/glibc_modified/build/libc_pic.a(memcmp-evex-movbe.os) (0x839)
Removed property 0xc0000002 to merge /home/saraj/Desktop/glibc_modified/build/elf/librtld.mapT.o (not found) and /home/saraj/Desktop/glibc_modified/build/libc_pic.a(memcmp-evex-movbe.os) (0x3)
Updated property 0xc0010001 (0xafb) to merge /home/saraj/Desktop/glibc_modified/build/elf/librtld.mapT.o (0xafb) and /home/saraj/Desktop/glibc_modified/build/libc_pic.a(memcmp-sse2.os) (0x9)
Updated property 0xc0010002 (0xd) to merge /home/saraj/Desktop/glibc_modified/build/elf/librtld.mapT.o (0xd) and /home/saraj/Desktop/glibc_modified/build/libc_pic.a(memcmp-sse2.os) (0x1)
Removed property 0xc0000002 to merge /home/saraj/Desktop/glibc_modified/build/elf/librtld.mapT.o (not found) and /home/saraj/Desktop/glibc_modified/build/libc_pic.a(memcmp-sse2.os) (0x3)
Updated property 0xc0010001 (0xafb) to merge /home/saraj/Desktop/glibc_modified/build/elf/librtld.mapT.o (0xafb) and /home/saraj/Desktop/glibc_modified/build/libc_pic.a(memmove-avx-unaligned-erms.os) (0x19)
Updated property 0xc0010002 (0xd) to merge /home/saraj/Desktop/glibc_modified/build/elf/librtld.mapT.o (0xd) and /home/saraj/Desktop/glibc_modified/build/libc_pic.a(memmove-avx-unaligned-erms.os) (0x5)
Removed property 0xc0000002 to merge /home/saraj/Desktop/glibc_modified/build/elf/librtld.mapT.o (not found) and /home/saraj/Desktop/glibc_modified/build/libc_pic.a(memmove-avx-unaligned-erms.os) (0x3)
Updated property 0xc0010001 (0xafb) to merge /home/saraj/Desktop/glibc_modified/build/elf/librtld.mapT.o (0xafb) and /home/saraj/Desktop/glibc_modified/build/libc_pic.a(memmove-avx-unaligned-erms-rtm.os) (0x19)
Updated property 0xc0010002 (0xd) to merge /home/saraj/Desktop/glibc_modified/build/elf/librtld.mapT.o (0xd) and /home/saraj/Desktop/glibc_modified/build/libc_pic.a(memmove-avx-unaligned-erms-rtm.os) (0x5)
Removed property 0xc0000002 to merge /home/saraj/Desktop/glibc_modified/build/elf/librtld.mapT.o (not found) and /home/saraj/Desktop/glibc_modified/build/libc_pic.a(memmove-avx-unaligned-erms-rtm.os) (0x3)
Updated property 0xc0010001 (0xafb) to merge /home/saraj/Desktop/glibc_modified/build/elf/librtld.mapT.o (0xafb) and /home/saraj/Desktop/glibc_modified/build/libc_pic.a(memmove-avx512-no-vzeroupper.os) (0x39)
Removed property 0xc0000002 to merge /home/saraj/Desktop/glibc_modified/build/elf/librtld.mapT.o (not found) and /home/saraj/Desktop/glibc_modified/build/libc_pic.a(memmove-avx512-no-vzeroupper.os) (0x3)
Updated property 0xc0010001 (0xafb) to merge /home/saraj/Desktop/glibc_modified/build/elf/librtld.mapT.o (0xafb) and /home/saraj/Desktop/glibc_modified/build/libc_pic.a(memmove-avx512-unaligned-erms.os) (0x39)
Removed property 0xc0000002 to merge /home/saraj/Desktop/glibc_modified/build/elf/librtld.mapT.o (not found) and /home/saraj/Desktop/glibc_modified/build/libc_pic.a(memmove-avx512-unaligned-erms.os) (0x3)
Updated property 0xc0010001 (0xafb) to merge /home/saraj/Desktop/glibc_modified/build/elf/librtld.mapT.o (0xafb) and /home/saraj/Desktop/glibc_modified/build/libc_pic.a(memmove-erms.os) (0x1)
Updated property 0xc0010002 (0xd) to merge /home/saraj/Desktop/glibc_modified/build/elf/librtld.mapT.o (0xd) and /home/saraj/Desktop/glibc_modified/build/libc_pic.a(memmove-erms.os) (0x0)
Removed property 0xc0000002 to merge /home/saraj/Desktop/glibc_modified/build/elf/librtld.mapT.o (not found) and /home/saraj/Desktop/glibc_modified/build/libc_pic.a(memmove-erms.os) (0x3)
Updated property 0xc0010001 (0xafb) to merge /home/saraj/Desktop/glibc_modified/build/elf/librtld.mapT.o (0xafb) and /home/saraj/Desktop/glibc_modified/build/libc_pic.a(memmove-evex-unaligned-erms.os) (0x39)
Removed property 0xc0000002 to merge /home/saraj/Desktop/glibc_modified/build/elf/librtld.mapT.o (not found) and /home/saraj/Desktop/glibc_modified/build/libc_pic.a(memmove-evex-unaligned-erms.os) (0x3)
Updated property 0xc0010001 (0xafb) to merge /home/saraj/Desktop/glibc_modified/build/elf/librtld.mapT.o (0xafb) and /home/saraj/Desktop/glibc_modified/build/libc_pic.a(memmove-sse2-unaligned-erms.os) (0x9)
Updated property 0xc0010002 (0xd) to merge /home/saraj/Desktop/glibc_modified/build/elf/librtld.mapT.o (0xd) and /home/saraj/Desktop/glibc_modified/build/libc_pic.a(memmove-sse2-unaligned-erms.os) (0x1)
Removed property 0xc0000002 to merge /home/saraj/Desktop/glibc_modified/build/elf/librtld.mapT.o (not found) and /home/saraj/Desktop/glibc_modified/build/libc_pic.a(memmove-sse2-unaligned-erms.os) (0x3)
Updated property 0xc0010001 (0xafb) to merge /home/saraj/Desktop/glibc_modified/build/elf/librtld.mapT.o (0xafb) and /home/saraj/Desktop/glibc_modified/build/libc_pic.a(memmove-ssse3.os) (0x9)
Updated property 0xc0010002 (0xf) to merge /home/saraj/Desktop/glibc_modified/build/elf/librtld.mapT.o (0xd) and /home/saraj/Desktop/glibc_modified/build/libc_pic.a(memmove-ssse3.os) (0x3)
Removed property 0xc0000002 to merge /home/saraj/Desktop/glibc_modified/build/elf/librtld.mapT.o (not found) and /home/saraj/Desktop/glibc_modified/build/libc_pic.a(memmove-ssse3.os) (0x3)
Updated property 0xc0010001 (0xafb) to merge /home/saraj/Desktop/glibc_modified/build/elf/librtld.mapT.o (0xafb) and /home/saraj/Desktop/glibc_modified/build/libc_pic.a(memset-avx2-unaligned-erms.os) (0x19)
Updated property 0xc0010002 (0xf) to merge /home/saraj/Desktop/glibc_modified/build/elf/librtld.mapT.o (0xf) and /home/saraj/Desktop/glibc_modified/build/libc_pic.a(memset-avx2-unaligned-erms.os) (0x5)
Removed property 0xc0000002 to merge /home/saraj/Desktop/glibc_modified/build/elf/librtld.mapT.o (not found) and /home/saraj/Desktop/glibc_modified/build/libc_pic.a(memset-avx2-unaligned-erms.os) (0x3)
Updated property 0xc0010001 (0xafb) to merge /home/saraj/Desktop/glibc_modified/build/elf/librtld.mapT.o (0xafb) and /home/saraj/Desktop/glibc_modified/build/libc_pic.a(memset-avx2-unaligned-erms-rtm.os) (0x19)
Updated property 0xc0010002 (0xf) to merge /home/saraj/Desktop/glibc_modified/build/elf/librtld.mapT.o (0xf) and /home/saraj/Desktop/glibc_modified/build/libc_pic.a(memset-avx2-unaligned-erms-rtm.os) (0x5)
Removed property 0xc0000002 to merge /home/saraj/Desktop/glibc_modified/build/elf/librtld.mapT.o (not found) and /home/saraj/Desktop/glibc_modified/build/libc_pic.a(memset-avx2-unaligned-erms-rtm.os) (0x3)
Updated property 0xc0010001 (0xafb) to merge /home/saraj/Desktop/glibc_modified/build/elf/librtld.mapT.o (0xafb) and /home/saraj/Desktop/glibc_modified/build/libc_pic.a(memset-avx512-no-vzeroupper.os) (0x39)
Updated property 0xc0010002 (0xf) to merge /home/saraj/Desktop/glibc_modified/build/elf/librtld.mapT.o (0xf) and /home/saraj/Desktop/glibc_modified/build/libc_pic.a(memset-avx512-no-vzeroupper.os) (0xd)
Removed property 0xc0000002 to merge /home/saraj/Desktop/glibc_modified/build/elf/librtld.mapT.o (not found) and /home/saraj/Desktop/glibc_modified/build/libc_pic.a(memset-avx512-no-vzeroupper.os) (0x3)
Updated property 0xc0010001 (0xafb) to merge /home/saraj/Desktop/glibc_modified/build/elf/librtld.mapT.o (0xafb) and /home/saraj/Desktop/glibc_modified/build/libc_pic.a(memset-avx512-unaligned-erms.os) (0x839)
Updated property 0xc0010002 (0xf) to merge /home/saraj/Desktop/glibc_modified/build/elf/librtld.mapT.o (0xf) and /home/saraj/Desktop/glibc_modified/build/libc_pic.a(memset-avx512-unaligned-erms.os) (0xd)
Removed property 0xc0000002 to merge /home/saraj/Desktop/glibc_modified/build/elf/librtld.mapT.o (not found) and /home/saraj/Desktop/glibc_modified/build/libc_pic.a(memset-avx512-unaligned-erms.os) (0x3)
Updated property 0xc0010001 (0xafb) to merge /home/saraj/Desktop/glibc_modified/build/elf/librtld.mapT.o (0xafb) and /home/saraj/Desktop/glibc_modified/build/libc_pic.a(memset-erms.os) (0x1)
Updated property 0xc0010002 (0xf) to merge /home/saraj/Desktop/glibc_modified/build/elf/librtld.mapT.o (0xf) and /home/saraj/Desktop/glibc_modified/build/libc_pic.a(memset-erms.os) (0x0)
Removed property 0xc0000002 to merge /home/saraj/Desktop/glibc_modified/build/elf/librtld.mapT.o (not found) and /home/saraj/Desktop/glibc_modified/build/libc_pic.a(memset-erms.os) (0x3)
Updated property 0xc0010001 (0xafb) to merge /home/saraj/Desktop/glibc_modified/build/elf/librtld.mapT.o (0xafb) and /home/saraj/Desktop/glibc_modified/build/libc_pic.a(memset-evex-unaligned-erms.os) (0x839)
Updated property 0xc0010002 (0xf) to merge /home/saraj/Desktop/glibc_modified/build/elf/librtld.mapT.o (0xf) and /home/saraj/Desktop/glibc_modified/build/libc_pic.a(memset-evex-unaligned-erms.os) (0xd)
Removed property 0xc0000002 to merge /home/saraj/Desktop/glibc_modified/build/elf/librtld.mapT.o (not found) and /home/saraj/Desktop/glibc_modified/build/libc_pic.a(memset-evex-unaligned-erms.os) (0x3)
Updated property 0xc0010001 (0xafb) to merge /home/saraj/Desktop/glibc_modified/build/elf/librtld.mapT.o (0xafb) and /home/saraj/Desktop/glibc_modified/build/libc_pic.a(memset-sse2-unaligned-erms.os) (0x9)
Updated property 0xc0010002 (0xf) to merge /home/saraj/Desktop/glibc_modified/build/elf/librtld.mapT.o (0xf) and /home/saraj/Desktop/glibc_modified/build/libc_pic.a(memset-sse2-unaligned-erms.os) (0x1)
Removed property 0xc0000002 to merge /home/saraj/Desktop/glibc_modified/build/elf/librtld.mapT.o (not found) and /home/saraj/Desktop/glibc_modified/build/libc_pic.a(memset-sse2-unaligned-erms.os) (0x3)
Updated property 0xc0010001 (0xafb) to merge /home/saraj/Desktop/glibc_modified/build/elf/librtld.mapT.o (0xafb) and /home/saraj/Desktop/glibc_modified/build/libc_pic.a(stpcpy-avx2.os) (0x19)
Updated property 0xc0010002 (0xf) to merge /home/saraj/Desktop/glibc_modified/build/elf/librtld.mapT.o (0xf) and /home/saraj/Desktop/glibc_modified/build/libc_pic.a(stpcpy-avx2.os) (0x5)
Removed property 0xc0000002 to merge /home/saraj/Desktop/glibc_modified/build/elf/librtld.mapT.o (not found) and /home/saraj/Desktop/glibc_modified/build/libc_pic.a(stpcpy-avx2.os) (0x3)
Updated property 0xc0010001 (0xafb) to merge /home/saraj/Desktop/glibc_modified/build/elf/librtld.mapT.o (0xafb) and /home/saraj/Desktop/glibc_modified/build/libc_pic.a(stpcpy-avx2-rtm.os) (0x19)
Updated property 0xc0010002 (0xf) to merge /home/saraj/Desktop/glibc_modified/build/elf/librtld.mapT.o (0xf) and /home/saraj/Desktop/glibc_modified/build/libc_pic.a(stpcpy-avx2-rtm.os) (0x5)
Removed property 0xc0000002 to merge /home/saraj/Desktop/glibc_modified/build/elf/librtld.mapT.o (not found) and /home/saraj/Desktop/glibc_modified/build/libc_pic.a(stpcpy-avx2-rtm.os) (0x3)
Updated property 0xc0010001 (0xafb) to merge /home/saraj/Desktop/glibc_modified/build/elf/librtld.mapT.o (0xafb) and /home/saraj/Desktop/glibc_modified/build/libc_pic.a(stpcpy-evex.os) (0x839)
Updated property 0xc0010002 (0xf) to merge /home/saraj/Desktop/glibc_modified/build/elf/librtld.mapT.o (0xf) and /home/saraj/Desktop/glibc_modified/build/libc_pic.a(stpcpy-evex.os) (0xd)
Removed property 0xc0000002 to merge /home/saraj/Desktop/glibc_modified/build/elf/librtld.mapT.o (not found) and /home/saraj/Desktop/glibc_modified/build/libc_pic.a(stpcpy-evex.os) (0x3)
Updated property 0xc0010001 (0xafb) to merge /home/saraj/Desktop/glibc_modified/build/elf/librtld.mapT.o (0xafb) and /home/saraj/Desktop/glibc_modified/build/libc_pic.a(stpcpy-sse2.os) (0x1)
Updated property 0xc0010002 (0xf) to merge /home/saraj/Desktop/glibc_modified/build/elf/librtld.mapT.o (0xf) and /home/saraj/Desktop/glibc_modified/build/libc_pic.a(stpcpy-sse2.os) (0x0)
Removed property 0xc0000002 to merge /home/saraj/Desktop/glibc_modified/build/elf/librtld.mapT.o (not found) and /home/saraj/Desktop/glibc_modified/build/libc_pic.a(stpcpy-sse2.os) (0x3)
Updated property 0xc0010001 (0xafb) to merge /home/saraj/Desktop/glibc_modified/build/elf/librtld.mapT.o (0xafb) and /home/saraj/Desktop/glibc_modified/build/libc_pic.a(stpcpy-sse2-unaligned.os) (0x9)
Updated property 0xc0010002 (0xf) to merge /home/saraj/Desktop/glibc_modified/build/elf/librtld.mapT.o (0xf) and /home/saraj/Desktop/glibc_modified/build/libc_pic.a(stpcpy-sse2-unaligned.os) (0x1)
Removed property 0xc0000002 to merge /home/saraj/Desktop/glibc_modified/build/elf/librtld.mapT.o (not found) and /home/saraj/Desktop/glibc_modified/build/libc_pic.a(stpcpy-sse2-unaligned.os) (0x3)
Updated property 0xc0010001 (0xafb) to merge /home/saraj/Desktop/glibc_modified/build/elf/librtld.mapT.o (0xafb) and /home/saraj/Desktop/glibc_modified/build/libc_pic.a(strchr-avx2.os) (0x19)
Updated property 0xc0010002 (0xf) to merge /home/saraj/Desktop/glibc_modified/build/elf/librtld.mapT.o (0xf) and /home/saraj/Desktop/glibc_modified/build/libc_pic.a(strchr-avx2.os) (0x5)
Removed property 0xc0000002 to merge /home/saraj/Desktop/glibc_modified/build/elf/librtld.mapT.o (not found) and /home/saraj/Desktop/glibc_modified/build/libc_pic.a(strchr-avx2.os) (0x3)
Updated property 0xc0010001 (0xafb) to merge /home/saraj/Desktop/glibc_modified/build/elf/librtld.mapT.o (0xafb) and /home/saraj/Desktop/glibc_modified/build/libc_pic.a(strchr-avx2-rtm.os) (0x19)
Updated property 0xc0010002 (0xf) to merge /home/saraj/Desktop/glibc_modified/build/elf/librtld.mapT.o (0xf) and /home/saraj/Desktop/glibc_modified/build/libc_pic.a(strchr-avx2-rtm.os) (0x5)
Removed property 0xc0000002 to merge /home/saraj/Desktop/glibc_modified/build/elf/librtld.mapT.o (not found) and /home/saraj/Desktop/glibc_modified/build/libc_pic.a(strchr-avx2-rtm.os) (0x3)
Updated property 0xc0010001 (0xafb) to merge /home/saraj/Desktop/glibc_modified/build/elf/librtld.mapT.o (0xafb) and /home/saraj/Desktop/glibc_modified/build/libc_pic.a(strchr-evex.os) (0x839)
Updated property 0xc0010002 (0xf) to merge /home/saraj/Desktop/glibc_modified/build/elf/librtld.mapT.o (0xf) and /home/saraj/Desktop/glibc_modified/build/libc_pic.a(strchr-evex.os) (0xd)
Removed property 0xc0000002 to merge /home/saraj/Desktop/glibc_modified/build/elf/librtld.mapT.o (not found) and /home/saraj/Desktop/glibc_modified/build/libc_pic.a(strchr-evex.os) (0x3)
Updated property 0xc0010001 (0xafb) to merge /home/saraj/Desktop/glibc_modified/build/elf/librtld.mapT.o (0xafb) and /home/saraj/Desktop/glibc_modified/build/libc_pic.a(strchr-sse2.os) (0x9)
Updated property 0xc0010002 (0xf) to merge /home/saraj/Desktop/glibc_modified/build/elf/librtld.mapT.o (0xf) and /home/saraj/Desktop/glibc_modified/build/libc_pic.a(strchr-sse2.os) (0x1)
Removed property 0xc0000002 to merge /home/saraj/Desktop/glibc_modified/build/elf/librtld.mapT.o (not found) and /home/saraj/Desktop/glibc_modified/build/libc_pic.a(strchr-sse2.os) (0x3)
Updated property 0xc0010001 (0xafb) to merge /home/saraj/Desktop/glibc_modified/build/elf/librtld.mapT.o (0xafb) and /home/saraj/Desktop/glibc_modified/build/libc_pic.a(strchr-sse2-no-bsf.os) (0x9)
Updated property 0xc0010002 (0xf) to merge /home/saraj/Desktop/glibc_modified/build/elf/librtld.mapT.o (0xf) and /home/saraj/Desktop/glibc_modified/build/libc_pic.a(strchr-sse2-no-bsf.os) (0x1)
Removed property 0xc0000002 to merge /home/saraj/Desktop/glibc_modified/build/elf/librtld.mapT.o (not found) and /home/saraj/Desktop/glibc_modified/build/libc_pic.a(strchr-sse2-no-bsf.os) (0x3)
Updated property 0xc0010001 (0xafb) to merge /home/saraj/Desktop/glibc_modified/build/elf/librtld.mapT.o (0xafb) and /home/saraj/Desktop/glibc_modified/build/libc_pic.a(strcmp-avx2.os) (0x19)
Updated property 0xc0010002 (0xf) to merge /home/saraj/Desktop/glibc_modified/build/elf/librtld.mapT.o (0xf) and /home/saraj/Desktop/glibc_modified/build/libc_pic.a(strcmp-avx2.os) (0x5)
Removed property 0xc0000002 to merge /home/saraj/Desktop/glibc_modified/build/elf/librtld.mapT.o (not found) and /home/saraj/Desktop/glibc_modified/build/libc_pic.a(strcmp-avx2.os) (0x3)
Updated property 0xc0010001 (0xafb) to merge /home/saraj/Desktop/glibc_modified/build/elf/librtld.mapT.o (0xafb) and /home/saraj/Desktop/glibc_modified/build/libc_pic.a(strcmp-avx2-rtm.os) (0x19)
Updated property 0xc0010002 (0xf) to merge /home/saraj/Desktop/glibc_modified/build/elf/librtld.mapT.o (0xf) and /home/saraj/Desktop/glibc_modified/build/libc_pic.a(strcmp-avx2-rtm.os) (0x5)
Removed property 0xc0000002 to merge /home/saraj/Desktop/glibc_modified/build/elf/librtld.mapT.o (not found) and /home/saraj/Desktop/glibc_modified/build/libc_pic.a(strcmp-avx2-rtm.os) (0x3)
Updated property 0xc0010001 (0xafb) to merge /home/saraj/Desktop/glibc_modified/build/elf/librtld.mapT.o (0xafb) and /home/saraj/Desktop/glibc_modified/build/libc_pic.a(strcmp-evex.os) (0x839)
Updated property 0xc0010002 (0xf) to merge /home/saraj/Desktop/glibc_modified/build/elf/librtld.mapT.o (0xf) and /home/saraj/Desktop/glibc_modified/build/libc_pic.a(strcmp-evex.os) (0xd)
Removed property 0xc0000002 to merge /home/saraj/Desktop/glibc_modified/build/elf/librtld.mapT.o (not found) and /home/saraj/Desktop/glibc_modified/build/libc_pic.a(strcmp-evex.os) (0x3)
Updated property 0xc0010001 (0xafb) to merge /home/saraj/Desktop/glibc_modified/build/elf/librtld.mapT.o (0xafb) and /home/saraj/Desktop/glibc_modified/build/libc_pic.a(strcmp-sse2.os) (0x9)
Updated property 0xc0010002 (0xf) to merge /home/saraj/Desktop/glibc_modified/build/elf/librtld.mapT.o (0xf) and /home/saraj/Desktop/glibc_modified/build/libc_pic.a(strcmp-sse2.os) (0x1)
Removed property 0xc0000002 to merge /home/saraj/Desktop/glibc_modified/build/elf/librtld.mapT.o (not found) and /home/saraj/Desktop/glibc_modified/build/libc_pic.a(strcmp-sse2.os) (0x3)
Updated property 0xc0010001 (0xafb) to merge /home/saraj/Desktop/glibc_modified/build/elf/librtld.mapT.o (0xafb) and /home/saraj/Desktop/glibc_modified/build/libc_pic.a(strcmp-sse2-unaligned.os) (0x9)
Updated property 0xc0010002 (0xf) to merge /home/saraj/Desktop/glibc_modified/build/elf/librtld.mapT.o (0xf) and /home/saraj/Desktop/glibc_modified/build/libc_pic.a(strcmp-sse2-unaligned.os) (0x1)
Removed property 0xc0000002 to merge /home/saraj/Desktop/glibc_modified/build/elf/librtld.mapT.o (not found) and /home/saraj/Desktop/glibc_modified/build/libc_pic.a(strcmp-sse2-unaligned.os) (0x3)
Updated property 0xc0010001 (0xafb) to merge /home/saraj/Desktop/glibc_modified/build/elf/librtld.mapT.o (0xafb) and /home/saraj/Desktop/glibc_modified/build/libc_pic.a(strcmp-sse4_2.os) (0x9)
Updated property 0xc0010002 (0xf) to merge /home/saraj/Desktop/glibc_modified/build/elf/librtld.mapT.o (0xf) and /home/saraj/Desktop/glibc_modified/build/libc_pic.a(strcmp-sse4_2.os) (0x3)
Removed property 0xc0000002 to merge /home/saraj/Desktop/glibc_modified/build/elf/librtld.mapT.o (not found) and /home/saraj/Desktop/glibc_modified/build/libc_pic.a(strcmp-sse4_2.os) (0x3)
Updated property 0xc0010001 (0xafb) to merge /home/saraj/Desktop/glibc_modified/build/elf/librtld.mapT.o (0xafb) and /home/saraj/Desktop/glibc_modified/build/libc_pic.a(strcspn-sse4.os) (0x9)
Updated property 0xc0010002 (0xf) to merge /home/saraj/Desktop/glibc_modified/build/elf/librtld.mapT.o (0xf) and /home/saraj/Desktop/glibc_modified/build/libc_pic.a(strcspn-sse4.os) (0x3)
Removed property 0xc0000002 to merge /home/saraj/Desktop/glibc_modified/build/elf/librtld.mapT.o (not found) and /home/saraj/Desktop/glibc_modified/build/libc_pic.a(strcspn-sse4.os) (0x3)
Updated property 0xc0010001 (0xafb) to merge /home/saraj/Desktop/glibc_modified/build/elf/librtld.mapT.o (0xafb) and /home/saraj/Desktop/glibc_modified/build/libc_pic.a(strlen-avx2.os) (0x19)
Updated property 0xc0010002 (0xf) to merge /home/saraj/Desktop/glibc_modified/build/elf/librtld.mapT.o (0xf) and /home/saraj/Desktop/glibc_modified/build/libc_pic.a(strlen-avx2.os) (0x5)
Removed property 0xc0000002 to merge /home/saraj/Desktop/glibc_modified/build/elf/librtld.mapT.o (not found) and /home/saraj/Desktop/glibc_modified/build/libc_pic.a(strlen-avx2.os) (0x3)
Updated property 0xc0010001 (0xafb) to merge /home/saraj/Desktop/glibc_modified/build/elf/librtld.mapT.o (0xafb) and /home/saraj/Desktop/glibc_modified/build/libc_pic.a(strlen-avx2-rtm.os) (0x19)
Updated property 0xc0010002 (0xf) to merge /home/saraj/Desktop/glibc_modified/build/elf/librtld.mapT.o (0xf) and /home/saraj/Desktop/glibc_modified/build/libc_pic.a(strlen-avx2-rtm.os) (0x5)
Removed property 0xc0000002 to merge /home/saraj/Desktop/glibc_modified/build/elf/librtld.mapT.o (not found) and /home/saraj/Desktop/glibc_modified/build/libc_pic.a(strlen-avx2-rtm.os) (0x3)
Updated property 0xc0010001 (0xafb) to merge /home/saraj/Desktop/glibc_modified/build/elf/librtld.mapT.o (0xafb) and /home/saraj/Desktop/glibc_modified/build/libc_pic.a(strlen-evex.os) (0x839)
Updated property 0xc0010002 (0xf) to merge /home/saraj/Desktop/glibc_modified/build/elf/librtld.mapT.o (0xf) and /home/saraj/Desktop/glibc_modified/build/libc_pic.a(strlen-evex.os) (0x9)
Removed property 0xc0000002 to merge /home/saraj/Desktop/glibc_modified/build/elf/librtld.mapT.o (not found) and /home/saraj/Desktop/glibc_modified/build/libc_pic.a(strlen-evex.os) (0x3)
Updated property 0xc0010001 (0xafb) to merge /home/saraj/Desktop/glibc_modified/build/elf/librtld.mapT.o (0xafb) and /home/saraj/Desktop/glibc_modified/build/libc_pic.a(strlen-sse2.os) (0x9)
Updated property 0xc0010002 (0xf) to merge /home/saraj/Desktop/glibc_modified/build/elf/librtld.mapT.o (0xf) and /home/saraj/Desktop/glibc_modified/build/libc_pic.a(strlen-sse2.os) (0x1)
Removed property 0xc0000002 to merge /home/saraj/Desktop/glibc_modified/build/elf/librtld.mapT.o (not found) and /home/saraj/Desktop/glibc_modified/build/libc_pic.a(strlen-sse2.os) (0x3)
Updated property 0xc0010001 (0xafb) to merge /home/saraj/Desktop/glibc_modified/build/elf/librtld.mapT.o (0xafb) and /home/saraj/Desktop/glibc_modified/build/libc_pic.a(strncmp-avx2.os) (0x19)
Updated property 0xc0010002 (0xf) to merge /home/saraj/Desktop/glibc_modified/build/elf/librtld.mapT.o (0xf) and /home/saraj/Desktop/glibc_modified/build/libc_pic.a(strncmp-avx2.os) (0x5)
Removed property 0xc0000002 to merge /home/saraj/Desktop/glibc_modified/build/elf/librtld.mapT.o (not found) and /home/saraj/Desktop/glibc_modified/build/libc_pic.a(strncmp-avx2.os) (0x3)
Updated property 0xc0010001 (0xafb) to merge /home/saraj/Desktop/glibc_modified/build/elf/librtld.mapT.o (0xafb) and /home/saraj/Desktop/glibc_modified/build/libc_pic.a(strncmp-avx2-rtm.os) (0x19)
Updated property 0xc0010002 (0xf) to merge /home/saraj/Desktop/glibc_modified/build/elf/librtld.mapT.o (0xf) and /home/saraj/Desktop/glibc_modified/build/libc_pic.a(strncmp-avx2-rtm.os) (0x5)
Removed property 0xc0000002 to merge /home/saraj/Desktop/glibc_modified/build/elf/librtld.mapT.o (not found) and /home/saraj/Desktop/glibc_modified/build/libc_pic.a(strncmp-avx2-rtm.os) (0x3)
Updated property 0xc0010001 (0xafb) to merge /home/saraj/Desktop/glibc_modified/build/elf/librtld.mapT.o (0xafb) and /home/saraj/Desktop/glibc_modified/build/libc_pic.a(strncmp-evex.os) (0x839)
Updated property 0xc0010002 (0xf) to merge /home/saraj/Desktop/glibc_modified/build/elf/librtld.mapT.o (0xf) and /home/saraj/Desktop/glibc_modified/build/libc_pic.a(strncmp-evex.os) (0xd)
Removed property 0xc0000002 to merge /home/saraj/Desktop/glibc_modified/build/elf/librtld.mapT.o (not found) and /home/saraj/Desktop/glibc_modified/build/libc_pic.a(strncmp-evex.os) (0x3)
Updated property 0xc0010001 (0xafb) to merge /home/saraj/Desktop/glibc_modified/build/elf/librtld.mapT.o (0xafb) and /home/saraj/Desktop/glibc_modified/build/libc_pic.a(strncmp-sse2.os) (0x9)
Updated property 0xc0010002 (0xf) to merge /home/saraj/Desktop/glibc_modified/build/elf/librtld.mapT.o (0xf) and /home/saraj/Desktop/glibc_modified/build/libc_pic.a(strncmp-sse2.os) (0x1)
Removed property 0xc0000002 to merge /home/saraj/Desktop/glibc_modified/build/elf/librtld.mapT.o (not found) and /home/saraj/Desktop/glibc_modified/build/libc_pic.a(strncmp-sse2.os) (0x3)
Updated property 0xc0010001 (0xafb) to merge /home/saraj/Desktop/glibc_modified/build/elf/librtld.mapT.o (0xafb) and /home/saraj/Desktop/glibc_modified/build/libc_pic.a(strncmp-sse4_2.os) (0x9)
Updated property 0xc0010002 (0xf) to merge /home/saraj/Desktop/glibc_modified/build/elf/librtld.mapT.o (0xf) and /home/saraj/Desktop/glibc_modified/build/libc_pic.a(strncmp-sse4_2.os) (0x3)
Removed property 0xc0000002 to merge /home/saraj/Desktop/glibc_modified/build/elf/librtld.mapT.o (not found) and /home/saraj/Desktop/glibc_modified/build/libc_pic.a(strncmp-sse4_2.os) (0x3)
Updated property 0xc0010001 (0xafb) to merge /home/saraj/Desktop/glibc_modified/build/elf/librtld.mapT.o (0xafb) and /home/saraj/Desktop/glibc_modified/build/libc_pic.a(strnlen-avx2.os) (0x19)
Updated property 0xc0010002 (0xf) to merge /home/saraj/Desktop/glibc_modified/build/elf/librtld.mapT.o (0xf) and /home/saraj/Desktop/glibc_modified/build/libc_pic.a(strnlen-avx2.os) (0x5)
Removed property 0xc0000002 to merge /home/saraj/Desktop/glibc_modified/build/elf/librtld.mapT.o (not found) and /home/saraj/Desktop/glibc_modified/build/libc_pic.a(strnlen-avx2.os) (0x3)
Updated property 0xc0010001 (0xafb) to merge /home/saraj/Desktop/glibc_modified/build/elf/librtld.mapT.o (0xafb) and /home/saraj/Desktop/glibc_modified/build/libc_pic.a(strnlen-avx2-rtm.os) (0x19)
Updated property 0xc0010002 (0xf) to merge /home/saraj/Desktop/glibc_modified/build/elf/librtld.mapT.o (0xf) and /home/saraj/Desktop/glibc_modified/build/libc_pic.a(strnlen-avx2-rtm.os) (0x5)
Removed property 0xc0000002 to merge /home/saraj/Desktop/glibc_modified/build/elf/librtld.mapT.o (not found) and /home/saraj/Desktop/glibc_modified/build/libc_pic.a(strnlen-avx2-rtm.os) (0x3)
Updated property 0xc0010001 (0xafb) to merge /home/saraj/Desktop/glibc_modified/build/elf/librtld.mapT.o (0xafb) and /home/saraj/Desktop/glibc_modified/build/libc_pic.a(strnlen-evex.os) (0x839)
Updated property 0xc0010002 (0xf) to merge /home/saraj/Desktop/glibc_modified/build/elf/librtld.mapT.o (0xf) and /home/saraj/Desktop/glibc_modified/build/libc_pic.a(strnlen-evex.os) (0xd)
Removed property 0xc0000002 to merge /home/saraj/Desktop/glibc_modified/build/elf/librtld.mapT.o (not found) and /home/saraj/Desktop/glibc_modified/build/libc_pic.a(strnlen-evex.os) (0x3)
Updated property 0xc0010001 (0xafb) to merge /home/saraj/Desktop/glibc_modified/build/elf/librtld.mapT.o (0xafb) and /home/saraj/Desktop/glibc_modified/build/libc_pic.a(strnlen-sse2.os) (0x9)
Updated property 0xc0010002 (0xf) to merge /home/saraj/Desktop/glibc_modified/build/elf/librtld.mapT.o (0xf) and /home/saraj/Desktop/glibc_modified/build/libc_pic.a(strnlen-sse2.os) (0x1)
Removed property 0xc0000002 to merge /home/saraj/Desktop/glibc_modified/build/elf/librtld.mapT.o (not found) and /home/saraj/Desktop/glibc_modified/build/libc_pic.a(strnlen-sse2.os) (0x3)
Updated property 0xc0010001 (0xafb) to merge /home/saraj/Desktop/glibc_modified/build/elf/librtld.mapT.o (0xafb) and /home/saraj/Desktop/glibc_modified/build/libc_pic.a(varshift.os) (0x1)
Updated property 0xc0010002 (0xf) to merge /home/saraj/Desktop/glibc_modified/build/elf/librtld.mapT.o (0xf) and /home/saraj/Desktop/glibc_modified/build/libc_pic.a(varshift.os) (0x0)
Removed property 0xc0000002 to merge /home/saraj/Desktop/glibc_modified/build/elf/librtld.mapT.o (not found) and /home/saraj/Desktop/glibc_modified/build/libc_pic.a(varshift.os) (0x3)
Updated property 0xc0010001 (0xafb) to merge /home/saraj/Desktop/glibc_modified/build/elf/librtld.mapT.o (0xafb) and /home/saraj/Desktop/glibc_modified/build/libc_pic.a(strcspn-generic.os) (0x9)
Updated property 0xc0010002 (0xf) to merge /home/saraj/Desktop/glibc_modified/build/elf/librtld.mapT.o (0xf) and /home/saraj/Desktop/glibc_modified/build/libc_pic.a(strcspn-generic.os) (0x1)
Removed property 0xc0000002 to merge /home/saraj/Desktop/glibc_modified/build/elf/librtld.mapT.o (not found) and /home/saraj/Desktop/glibc_modified/build/libc_pic.a(strcspn-generic.os) (0x3)
Updated property 0xc0010001 (0xafb) to merge /home/saraj/Desktop/glibc_modified/build/elf/librtld.mapT.o (0xafb) and /home/saraj/Desktop/glibc_modified/build/libc_pic.a(cacheinfo.os) (0x1)
Updated property 0xc0010002 (0xf) to merge /home/saraj/Desktop/glibc_modified/build/elf/librtld.mapT.o (0xf) and /home/saraj/Desktop/glibc_modified/build/libc_pic.a(cacheinfo.os) (0x0)
Removed property 0xc0000002 to merge /home/saraj/Desktop/glibc_modified/build/elf/librtld.mapT.o (not found) and /home/saraj/Desktop/glibc_modified/build/libc_pic.a(cacheinfo.os) (0x3)
Updated property 0xc0010001 (0xafb) to merge /home/saraj/Desktop/glibc_modified/build/elf/librtld.mapT.o (0xafb) and /home/saraj/Desktop/glibc_modified/build/libc_pic.a(closedir.os) (0x1)
Updated property 0xc0010002 (0xf) to merge /home/saraj/Desktop/glibc_modified/build/elf/librtld.mapT.o (0xf) and /home/saraj/Desktop/glibc_modified/build/libc_pic.a(closedir.os) (0x0)
Removed property 0xc0000002 to merge /home/saraj/Desktop/glibc_modified/build/elf/librtld.mapT.o (not found) and /home/saraj/Desktop/glibc_modified/build/libc_pic.a(closedir.os) (0x3)
Updated property 0xc0010001 (0xafb) to merge /home/saraj/Desktop/glibc_modified/build/elf/librtld.mapT.o (0xafb) and /home/saraj/Desktop/glibc_modified/build/libc_pic.a(fdopendir.os) (0x1)
Updated property 0xc0010002 (0xf) to merge /home/saraj/Desktop/glibc_modified/build/elf/librtld.mapT.o (0xf) and /home/saraj/Desktop/glibc_modified/build/libc_pic.a(fdopendir.os) (0x0)
Removed property 0xc0000002 to merge /home/saraj/Desktop/glibc_modified/build/elf/librtld.mapT.o (not found) and /home/saraj/Desktop/glibc_modified/build/libc_pic.a(fdopendir.os) (0x3)
Updated property 0xc0010001 (0xafb) to merge /home/saraj/Desktop/glibc_modified/build/elf/librtld.mapT.o (0xafb) and /home/saraj/Desktop/glibc_modified/build/libc_pic.a(readdir64.os) (0x1)
Updated property 0xc0010002 (0xf) to merge /home/saraj/Desktop/glibc_modified/build/elf/librtld.mapT.o (0xf) and /home/saraj/Desktop/glibc_modified/build/libc_pic.a(readdir64.os) (0x0)
Removed property 0xc0000002 to merge /home/saraj/Desktop/glibc_modified/build/elf/librtld.mapT.o (not found) and /home/saraj/Desktop/glibc_modified/build/libc_pic.a(readdir64.os) (0x3)
Updated property 0xc0010001 (0xafb) to merge /home/saraj/Desktop/glibc_modified/build/elf/librtld.mapT.o (0xafb) and /home/saraj/Desktop/glibc_modified/build/libc_pic.a(rewinddir.os) (0x9)
Updated property 0xc0010002 (0xf) to merge /home/saraj/Desktop/glibc_modified/build/elf/librtld.mapT.o (0xf) and /home/saraj/Desktop/glibc_modified/build/libc_pic.a(rewinddir.os) (0x1)
Removed property 0xc0000002 to merge /home/saraj/Desktop/glibc_modified/build/elf/librtld.mapT.o (not found) and /home/saraj/Desktop/glibc_modified/build/libc_pic.a(rewinddir.os) (0x3)
Updated property 0xc0010001 (0xafb) to merge /home/saraj/Desktop/glibc_modified/build/elf/librtld.mapT.o (0xafb) and /home/saraj/Desktop/glibc_modified/build/libc_pic.a(_exit.os) (0x1)
Updated property 0xc0010002 (0xf) to merge /home/saraj/Desktop/glibc_modified/build/elf/librtld.mapT.o (0xf) and /home/saraj/Desktop/glibc_modified/build/libc_pic.a(_exit.os) (0x1)
Removed property 0xc0000002 to merge /home/saraj/Desktop/glibc_modified/build/elf/librtld.mapT.o (not found) and /home/saraj/Desktop/glibc_modified/build/libc_pic.a(_exit.os) (0x3)
Updated property 0xc0010001 (0xafb) to merge /home/saraj/Desktop/glibc_modified/build/elf/librtld.mapT.o (0xafb) and /home/saraj/Desktop/glibc_modified/build/libc_pic.a(getpid.os) (0x1)
Updated property 0xc0010002 (0xf) to merge /home/saraj/Desktop/glibc_modified/build/elf/librtld.mapT.o (0xf) and /home/saraj/Desktop/glibc_modified/build/libc_pic.a(getpid.os) (0x1)
Removed property 0xc0000002 to merge /home/saraj/Desktop/glibc_modified/build/elf/librtld.mapT.o (not found) and /home/saraj/Desktop/glibc_modified/build/libc_pic.a(getpid.os) (0x3)
Updated property 0xc0010001 (0xafb) to merge /home/saraj/Desktop/glibc_modified/build/elf/librtld.mapT.o (0xafb) and /home/saraj/Desktop/glibc_modified/build/libc_pic.a(uname.os) (0x1)
Updated property 0xc0010002 (0xf) to merge /home/saraj/Desktop/glibc_modified/build/elf/librtld.mapT.o (0xf) and /home/saraj/Desktop/glibc_modified/build/libc_pic.a(uname.os) (0x1)
Removed property 0xc0000002 to merge /home/saraj/Desktop/glibc_modified/build/elf/librtld.mapT.o (not found) and /home/saraj/Desktop/glibc_modified/build/libc_pic.a(uname.os) (0x3)
Updated property 0xc0010001 (0xafb) to merge /home/saraj/Desktop/glibc_modified/build/elf/librtld.mapT.o (0xafb) and /home/saraj/Desktop/glibc_modified/build/libc_pic.a(environ.os) (0x1)
Updated property 0xc0010002 (0xf) to merge /home/saraj/Desktop/glibc_modified/build/elf/librtld.mapT.o (0xf) and /home/saraj/Desktop/glibc_modified/build/libc_pic.a(environ.os) (0x0)
Removed property 0xc0000002 to merge /home/saraj/Desktop/glibc_modified/build/elf/librtld.mapT.o (not found) and /home/saraj/Desktop/glibc_modified/build/libc_pic.a(environ.os) (0x3)
Updated property 0xc0010001 (0xafb) to merge /home/saraj/Desktop/glibc_modified/build/elf/librtld.mapT.o (0xafb) and /home/saraj/Desktop/glibc_modified/build/libc_pic.a(access.os) (0x1)
Updated property 0xc0010002 (0xf) to merge /home/saraj/Desktop/glibc_modified/build/elf/librtld.mapT.o (0xf) and /home/saraj/Desktop/glibc_modified/build/libc_pic.a(access.os) (0x1)
Removed property 0xc0000002 to merge /home/saraj/Desktop/glibc_modified/build/elf/librtld.mapT.o (not found) and /home/saraj/Desktop/glibc_modified/build/libc_pic.a(access.os) (0x3)
Updated property 0xc0010001 (0xafb) to merge /home/saraj/Desktop/glibc_modified/build/elf/librtld.mapT.o (0xafb) and /home/saraj/Desktop/glibc_modified/build/libc_pic.a(fstat64.os) (0x1)
Updated property 0xc0010002 (0xf) to merge /home/saraj/Desktop/glibc_modified/build/elf/librtld.mapT.o (0xf) and /home/saraj/Desktop/glibc_modified/build/libc_pic.a(fstat64.os) (0x1)
Removed property 0xc0000002 to merge /home/saraj/Desktop/glibc_modified/build/elf/librtld.mapT.o (not found) and /home/saraj/Desktop/glibc_modified/build/libc_pic.a(fstat64.os) (0x3)
Updated property 0xc0010001 (0xafb) to merge /home/saraj/Desktop/glibc_modified/build/elf/librtld.mapT.o (0xafb) and /home/saraj/Desktop/glibc_modified/build/libc_pic.a(fstatat64.os) (0x1)
Updated property 0xc0010002 (0xf) to merge /home/saraj/Desktop/glibc_modified/build/elf/librtld.mapT.o (0xf) and /home/saraj/Desktop/glibc_modified/build/libc_pic.a(fstatat64.os) (0x1)
Removed property 0xc0000002 to merge /home/saraj/Desktop/glibc_modified/build/elf/librtld.mapT.o (not found) and /home/saraj/Desktop/glibc_modified/build/libc_pic.a(fstatat64.os) (0x3)
Updated property 0xc0010001 (0xafb) to merge /home/saraj/Desktop/glibc_modified/build/elf/librtld.mapT.o (0xafb) and /home/saraj/Desktop/glibc_modified/build/libc_pic.a(lseek64.os) (0x1)
Updated property 0xc0010002 (0xf) to merge /home/saraj/Desktop/glibc_modified/build/elf/librtld.mapT.o (0xf) and /home/saraj/Desktop/glibc_modified/build/libc_pic.a(lseek64.os) (0x1)
Removed property 0xc0000002 to merge /home/saraj/Desktop/glibc_modified/build/elf/librtld.mapT.o (not found) and /home/saraj/Desktop/glibc_modified/build/libc_pic.a(lseek64.os) (0x3)
Updated property 0xc0010001 (0xafb) to merge /home/saraj/Desktop/glibc_modified/build/elf/librtld.mapT.o (0xafb) and /home/saraj/Desktop/glibc_modified/build/libc_pic.a(lstat64.os) (0x1)
Updated property 0xc0010002 (0xf) to merge /home/saraj/Desktop/glibc_modified/build/elf/librtld.mapT.o (0xf) and /home/saraj/Desktop/glibc_modified/build/libc_pic.a(lstat64.os) (0x0)
Removed property 0xc0000002 to merge /home/saraj/Desktop/glibc_modified/build/elf/librtld.mapT.o (not found) and /home/saraj/Desktop/glibc_modified/build/libc_pic.a(lstat64.os) (0x3)
Updated property 0xc0010001 (0xafb) to merge /home/saraj/Desktop/glibc_modified/build/elf/librtld.mapT.o (0xafb) and /home/saraj/Desktop/glibc_modified/build/libc_pic.a(openat64.os) (0x1)
Updated property 0xc0010002 (0xf) to merge /home/saraj/Desktop/glibc_modified/build/elf/librtld.mapT.o (0xf) and /home/saraj/Desktop/glibc_modified/build/libc_pic.a(openat64.os) (0x0)
Removed property 0xc0000002 to merge /home/saraj/Desktop/glibc_modified/build/elf/librtld.mapT.o (not found) and /home/saraj/Desktop/glibc_modified/build/libc_pic.a(openat64.os) (0x3)
Updated property 0xc0010001 (0xafb) to merge /home/saraj/Desktop/glibc_modified/build/elf/librtld.mapT.o (0xafb) and /home/saraj/Desktop/glibc_modified/build/libc_pic.a(stat64.os) (0x1)
Updated property 0xc0010002 (0xf) to merge /home/saraj/Desktop/glibc_modified/build/elf/librtld.mapT.o (0xf) and /home/saraj/Desktop/glibc_modified/build/libc_pic.a(stat64.os) (0x0)
Removed property 0xc0000002 to merge /home/saraj/Desktop/glibc_modified/build/elf/librtld.mapT.o (not found) and /home/saraj/Desktop/glibc_modified/build/libc_pic.a(stat64.os) (0x3)
Updated property 0xc0010001 (0xafb) to merge /home/saraj/Desktop/glibc_modified/build/elf/librtld.mapT.o (0xafb) and /home/saraj/Desktop/glibc_modified/build/libc_pic.a(close_nocancel.os) (0x1)
Updated property 0xc0010002 (0xf) to merge /home/saraj/Desktop/glibc_modified/build/elf/librtld.mapT.o (0xf) and /home/saraj/Desktop/glibc_modified/build/libc_pic.a(close_nocancel.os) (0x1)
Removed property 0xc0000002 to merge /home/saraj/Desktop/glibc_modified/build/elf/librtld.mapT.o (not found) and /home/saraj/Desktop/glibc_modified/build/libc_pic.a(close_nocancel.os) (0x3)
Updated property 0xc0010001 (0xafb) to merge /home/saraj/Desktop/glibc_modified/build/elf/librtld.mapT.o (0xafb) and /home/saraj/Desktop/glibc_modified/build/libc_pic.a(close_nocancel_nostatus.os) (0x1)
Updated property 0xc0010002 (0xf) to merge /home/saraj/Desktop/glibc_modified/build/elf/librtld.mapT.o (0xf) and /home/saraj/Desktop/glibc_modified/build/libc_pic.a(close_nocancel_nostatus.os) (0x1)
Removed property 0xc0000002 to merge /home/saraj/Desktop/glibc_modified/build/elf/librtld.mapT.o (not found) and /home/saraj/Desktop/glibc_modified/build/libc_pic.a(close_nocancel_nostatus.os) (0x3)
Updated property 0xc0010001 (0xafb) to merge /home/saraj/Desktop/glibc_modified/build/elf/librtld.mapT.o (0xafb) and /home/saraj/Desktop/glibc_modified/build/libc_pic.a(fcntl_nocancel.os) (0x1)
Updated property 0xc0010002 (0xf) to merge /home/saraj/Desktop/glibc_modified/build/elf/librtld.mapT.o (0xf) and /home/saraj/Desktop/glibc_modified/build/libc_pic.a(fcntl_nocancel.os) (0x1)
Removed property 0xc0000002 to merge /home/saraj/Desktop/glibc_modified/build/elf/librtld.mapT.o (not found) and /home/saraj/Desktop/glibc_modified/build/libc_pic.a(fcntl_nocancel.os) (0x3)
Updated property 0xc0010001 (0xafb) to merge /home/saraj/Desktop/glibc_modified/build/elf/librtld.mapT.o (0xafb) and /home/saraj/Desktop/glibc_modified/build/libc_pic.a(open64_nocancel.os) (0x1)
Updated property 0xc0010002 (0xf) to merge /home/saraj/Desktop/glibc_modified/build/elf/librtld.mapT.o (0xf) and /home/saraj/Desktop/glibc_modified/build/libc_pic.a(open64_nocancel.os) (0x1)
Removed property 0xc0000002 to merge /home/saraj/Desktop/glibc_modified/build/elf/librtld.mapT.o (not found) and /home/saraj/Desktop/glibc_modified/build/libc_pic.a(open64_nocancel.os) (0x3)
Updated property 0xc0010001 (0xafb) to merge /home/saraj/Desktop/glibc_modified/build/elf/librtld.mapT.o (0xafb) and /home/saraj/Desktop/glibc_modified/build/libc_pic.a(pread64_nocancel.os) (0x1)
Updated property 0xc0010002 (0xf) to merge /home/saraj/Desktop/glibc_modified/build/elf/librtld.mapT.o (0xf) and /home/saraj/Desktop/glibc_modified/build/libc_pic.a(pread64_nocancel.os) (0x1)
Removed property 0xc0000002 to merge /home/saraj/Desktop/glibc_modified/build/elf/librtld.mapT.o (not found) and /home/saraj/Desktop/glibc_modified/build/libc_pic.a(pread64_nocancel.os) (0x3)
Updated property 0xc0010001 (0xafb) to merge /home/saraj/Desktop/glibc_modified/build/elf/librtld.mapT.o (0xafb) and /home/saraj/Desktop/glibc_modified/build/libc_pic.a(read_nocancel.os) (0x1)
Updated property 0xc0010002 (0xf) to merge /home/saraj/Desktop/glibc_modified/build/elf/librtld.mapT.o (0xf) and /home/saraj/Desktop/glibc_modified/build/libc_pic.a(read_nocancel.os) (0x1)
Removed property 0xc0000002 to merge /home/saraj/Desktop/glibc_modified/build/elf/librtld.mapT.o (not found) and /home/saraj/Desktop/glibc_modified/build/libc_pic.a(read_nocancel.os) (0x3)
Updated property 0xc0010001 (0xafb) to merge /home/saraj/Desktop/glibc_modified/build/elf/librtld.mapT.o (0xafb) and /home/saraj/Desktop/glibc_modified/build/libc_pic.a(write_nocancel.os) (0x1)
Updated property 0xc0010002 (0xf) to merge /home/saraj/Desktop/glibc_modified/build/elf/librtld.mapT.o (0xf) and /home/saraj/Desktop/glibc_modified/build/libc_pic.a(write_nocancel.os) (0x1)
Removed property 0xc0000002 to merge /home/saraj/Desktop/glibc_modified/build/elf/librtld.mapT.o (not found) and /home/saraj/Desktop/glibc_modified/build/libc_pic.a(write_nocancel.os) (0x3)
Updated property 0xc0010001 (0xafb) to merge /home/saraj/Desktop/glibc_modified/build/elf/librtld.mapT.o (0xafb) and /home/saraj/Desktop/glibc_modified/build/libc_pic.a(fd_to_filename.os) (0x1)
Updated property 0xc0010002 (0xf) to merge /home/saraj/Desktop/glibc_modified/build/elf/librtld.mapT.o (0xf) and /home/saraj/Desktop/glibc_modified/build/libc_pic.a(fd_to_filename.os) (0x0)
Removed property 0xc0000002 to merge /home/saraj/Desktop/glibc_modified/build/elf/librtld.mapT.o (not found) and /home/saraj/Desktop/glibc_modified/build/libc_pic.a(fd_to_filename.os) (0x3)
Updated property 0xc0010001 (0xafb) to merge /home/saraj/Desktop/glibc_modified/build/elf/librtld.mapT.o (0xafb) and /home/saraj/Desktop/glibc_modified/build/libc_pic.a(mmap64.os) (0x1)
Updated property 0xc0010002 (0xf) to merge /home/saraj/Desktop/glibc_modified/build/elf/librtld.mapT.o (0xf) and /home/saraj/Desktop/glibc_modified/build/libc_pic.a(mmap64.os) (0x1)
Removed property 0xc0000002 to merge /home/saraj/Desktop/glibc_modified/build/elf/librtld.mapT.o (not found) and /home/saraj/Desktop/glibc_modified/build/libc_pic.a(mmap64.os) (0x3)
Updated property 0xc0010001 (0xafb) to merge /home/saraj/Desktop/glibc_modified/build/elf/librtld.mapT.o (0xafb) and /home/saraj/Desktop/glibc_modified/build/libc_pic.a(mprotect.os) (0x1)
Updated property 0xc0010002 (0xf) to merge /home/saraj/Desktop/glibc_modified/build/elf/librtld.mapT.o (0xf) and /home/saraj/Desktop/glibc_modified/build/libc_pic.a(mprotect.os) (0x1)
Removed property 0xc0000002 to merge /home/saraj/Desktop/glibc_modified/build/elf/librtld.mapT.o (not found) and /home/saraj/Desktop/glibc_modified/build/libc_pic.a(mprotect.os) (0x3)
Updated property 0xc0010001 (0xafb) to merge /home/saraj/Desktop/glibc_modified/build/elf/librtld.mapT.o (0xafb) and /home/saraj/Desktop/glibc_modified/build/libc_pic.a(munmap.os) (0x1)
Updated property 0xc0010002 (0xf) to merge /home/saraj/Desktop/glibc_modified/build/elf/librtld.mapT.o (0xf) and /home/saraj/Desktop/glibc_modified/build/libc_pic.a(munmap.os) (0x1)
Removed property 0xc0000002 to merge /home/saraj/Desktop/glibc_modified/build/elf/librtld.mapT.o (not found) and /home/saraj/Desktop/glibc_modified/build/libc_pic.a(munmap.os) (0x3)
Updated property 0xc0010001 (0xafb) to merge /home/saraj/Desktop/glibc_modified/build/elf/librtld.mapT.o (0xafb) and /home/saraj/Desktop/glibc_modified/build/libc_pic.a(setvmaname.os) (0x1)
Updated property 0xc0010002 (0xf) to merge /home/saraj/Desktop/glibc_modified/build/elf/librtld.mapT.o (0xf) and /home/saraj/Desktop/glibc_modified/build/libc_pic.a(setvmaname.os) (0x1)
Removed property 0xc0000002 to merge /home/saraj/Desktop/glibc_modified/build/elf/librtld.mapT.o (not found) and /home/saraj/Desktop/glibc_modified/build/libc_pic.a(setvmaname.os) (0x3)
Updated property 0xc0010001 (0xafb) to merge /home/saraj/Desktop/glibc_modified/build/elf/librtld.mapT.o (0xafb) and /home/saraj/Desktop/glibc_modified/build/libc_pic.a(prof-freq.os) (0x1)
Updated property 0xc0010002 (0xf) to merge /home/saraj/Desktop/glibc_modified/build/elf/librtld.mapT.o (0xf) and /home/saraj/Desktop/glibc_modified/build/libc_pic.a(prof-freq.os) (0x0)
Removed property 0xc0000002 to merge /home/saraj/Desktop/glibc_modified/build/elf/librtld.mapT.o (not found) and /home/saraj/Desktop/glibc_modified/build/libc_pic.a(prof-freq.os) (0x3)
Updated property 0xc0010001 (0xafb) to merge /home/saraj/Desktop/glibc_modified/build/elf/librtld.mapT.o (0xafb) and /home/saraj/Desktop/glibc_modified/build/libc_pic.a(profil.os) (0x9)
Updated property 0xc0010002 (0xf) to merge /home/saraj/Desktop/glibc_modified/build/elf/librtld.mapT.o (0xf) and /home/saraj/Desktop/glibc_modified/build/libc_pic.a(profil.os) (0x1)
Removed property 0xc0000002 to merge /home/saraj/Desktop/glibc_modified/build/elf/librtld.mapT.o (not found) and /home/saraj/Desktop/glibc_modified/build/libc_pic.a(profil.os) (0x3)
Updated property 0xc0010001 (0xafb) to merge /home/saraj/Desktop/glibc_modified/build/elf/librtld.mapT.o (0xafb) and /home/saraj/Desktop/glibc_modified/build/libc_pic.a(dl-addr-obj.os) (0x1)
Updated property 0xc0010002 (0xf) to merge /home/saraj/Desktop/glibc_modified/build/elf/librtld.mapT.o (0xf) and /home/saraj/Desktop/glibc_modified/build/libc_pic.a(dl-addr-obj.os) (0x0)
Removed property 0xc0000002 to merge /home/saraj/Desktop/glibc_modified/build/elf/librtld.mapT.o (not found) and /home/saraj/Desktop/glibc_modified/build/libc_pic.a(dl-addr-obj.os) (0x3)
Updated property 0xc0010001 (0xafb) to merge /home/saraj/Desktop/glibc_modified/build/elf/librtld.mapT.o (0xafb) and /home/saraj/Desktop/glibc_modified/build/libc_pic.a(libc_sigaction.os) (0x9)
Updated property 0xc0010002 (0xf) to merge /home/saraj/Desktop/glibc_modified/build/elf/librtld.mapT.o (0xf) and /home/saraj/Desktop/glibc_modified/build/libc_pic.a(libc_sigaction.os) (0x1)
Removed property 0xc0000002 to merge /home/saraj/Desktop/glibc_modified/build/elf/librtld.mapT.o (not found) and /home/saraj/Desktop/glibc_modified/build/libc_pic.a(libc_sigaction.os) (0x3)
Updated property 0xc0010001 (0xafb) to merge /home/saraj/Desktop/glibc_modified/build/elf/librtld.mapT.o (0xafb) and /home/saraj/Desktop/glibc_modified/build/libc_pic.a(errname.os) (0x1)
Updated property 0xc0010002 (0xf) to merge /home/saraj/Desktop/glibc_modified/build/elf/librtld.mapT.o (0xf) and /home/saraj/Desktop/glibc_modified/build/libc_pic.a(errname.os) (0x0)
Removed property 0xc0000002 to merge /home/saraj/Desktop/glibc_modified/build/elf/librtld.mapT.o (not found) and /home/saraj/Desktop/glibc_modified/build/libc_pic.a(errname.os) (0x3)
Updated property 0xc0010001 (0xafb) to merge /home/saraj/Desktop/glibc_modified/build/elf/librtld.mapT.o (0xafb) and /home/saraj/Desktop/glibc_modified/build/libc_pic.a(strchrnul.os) (0x1)
Updated property 0xc0010002 (0xf) to merge /home/saraj/Desktop/glibc_modified/build/elf/librtld.mapT.o (0xf) and /home/saraj/Desktop/glibc_modified/build/libc_pic.a(strchrnul.os) (0x1)
Removed property 0xc0000002 to merge /home/saraj/Desktop/glibc_modified/build/elf/librtld.mapT.o (not found) and /home/saraj/Desktop/glibc_modified/build/libc_pic.a(strchrnul.os) (0x3)
Updated property 0xc0010001 (0xafb) to merge /home/saraj/Desktop/glibc_modified/build/elf/librtld.mapT.o (0xafb) and /home/saraj/Desktop/glibc_modified/build/libc_pic.a(strchrnul-avx2.os) (0x19)
Updated property 0xc0010002 (0xf) to merge /home/saraj/Desktop/glibc_modified/build/elf/librtld.mapT.o (0xf) and /home/saraj/Desktop/glibc_modified/build/libc_pic.a(strchrnul-avx2.os) (0x5)
Removed property 0xc0000002 to merge /home/saraj/Desktop/glibc_modified/build/elf/librtld.mapT.o (not found) and /home/saraj/Desktop/glibc_modified/build/libc_pic.a(strchrnul-avx2.os) (0x3)
Updated property 0xc0010001 (0xafb) to merge /home/saraj/Desktop/glibc_modified/build/elf/librtld.mapT.o (0xafb) and /home/saraj/Desktop/glibc_modified/build/libc_pic.a(strchrnul-avx2-rtm.os) (0x19)
Updated property 0xc0010002 (0xf) to merge /home/saraj/Desktop/glibc_modified/build/elf/librtld.mapT.o (0xf) and /home/saraj/Desktop/glibc_modified/build/libc_pic.a(strchrnul-avx2-rtm.os) (0x5)
Removed property 0xc0000002 to merge /home/saraj/Desktop/glibc_modified/build/elf/librtld.mapT.o (not found) and /home/saraj/Desktop/glibc_modified/build/libc_pic.a(strchrnul-avx2-rtm.os) (0x3)
Updated property 0xc0010001 (0xafb) to merge /home/saraj/Desktop/glibc_modified/build/elf/librtld.mapT.o (0xafb) and /home/saraj/Desktop/glibc_modified/build/libc_pic.a(strchrnul-evex.os) (0x839)
Updated property 0xc0010002 (0xf) to merge /home/saraj/Desktop/glibc_modified/build/elf/librtld.mapT.o (0xf) and /home/saraj/Desktop/glibc_modified/build/libc_pic.a(strchrnul-evex.os) (0xd)
Removed property 0xc0000002 to merge /home/saraj/Desktop/glibc_modified/build/elf/librtld.mapT.o (not found) and /home/saraj/Desktop/glibc_modified/build/libc_pic.a(strchrnul-evex.os) (0x3)
Updated property 0xc0010001 (0xafb) to merge /home/saraj/Desktop/glibc_modified/build/elf/librtld.mapT.o (0xafb) and /home/saraj/Desktop/glibc_modified/build/libc_pic.a(strchrnul-sse2.os) (0x9)
Updated property 0xc0010002 (0xf) to merge /home/saraj/Desktop/glibc_modified/build/elf/librtld.mapT.o (0xf) and /home/saraj/Desktop/glibc_modified/build/libc_pic.a(strchrnul-sse2.os) (0x1)
Removed property 0xc0000002 to merge /home/saraj/Desktop/glibc_modified/build/elf/librtld.mapT.o (not found) and /home/saraj/Desktop/glibc_modified/build/libc_pic.a(strchrnul-sse2.os) (0x3)
Updated property 0xc0010001 (0xafb) to merge /home/saraj/Desktop/glibc_modified/build/elf/librtld.mapT.o (0xafb) and /home/saraj/Desktop/glibc_modified/build/libc_pic.a(setitimer.os) (0x1)
Updated property 0xc0010002 (0xf) to merge /home/saraj/Desktop/glibc_modified/build/elf/librtld.mapT.o (0xf) and /home/saraj/Desktop/glibc_modified/build/libc_pic.a(setitimer.os) (0x1)
Removed property 0xc0000002 to merge /home/saraj/Desktop/glibc_modified/build/elf/librtld.mapT.o (not found) and /home/saraj/Desktop/glibc_modified/build/libc_pic.a(setitimer.os) (0x3)
Updated property 0xc0010001 (0xafb) to merge /home/saraj/Desktop/glibc_modified/build/elf/librtld.mapT.o (0xafb) and /home/saraj/Desktop/glibc_modified/build/libc_pic.a(getdents64.os) (0x1)
Updated property 0xc0010002 (0xf) to merge /home/saraj/Desktop/glibc_modified/build/elf/librtld.mapT.o (0xf) and /home/saraj/Desktop/glibc_modified/build/libc_pic.a(getdents64.os) (0x1)
Removed property 0xc0000002 to merge /home/saraj/Desktop/glibc_modified/build/elf/librtld.mapT.o (not found) and /home/saraj/Desktop/glibc_modified/build/libc_pic.a(getdents64.os) (0x3)

Discarded input sections

 .note.gnu.property
                0x0000000000000000       0x40 /home/saraj/Desktop/glibc_modified/build/elf/dl-allobjs.os
 .note.gnu.property
                0x0000000000000000       0x50 /home/saraj/Desktop/glibc_modified/build/libc_pic.a(check_fds.os)
 .note.gnu.property
                0x0000000000000000       0x50 /home/saraj/Desktop/glibc_modified/build/libc_pic.a(errno.os)
 .note.gnu.property
                0x0000000000000000       0x50 /home/saraj/Desktop/glibc_modified/build/libc_pic.a(setjmp.os)
 .note.gnu.property
                0x0000000000000000       0x50 /home/saraj/Desktop/glibc_modified/build/libc_pic.a(__longjmp.os)
 .note.gnu.property
                0x0000000000000000       0x50 /home/saraj/Desktop/glibc_modified/build/libc_pic.a(getenv.os)
 .note.gnu.property
                0x0000000000000000       0x50 /home/saraj/Desktop/glibc_modified/build/libc_pic.a(_fitoa_word.os)
 .note.gnu.property
                0x0000000000000000       0x50 /home/saraj/Desktop/glibc_modified/build/libc_pic.a(itoa-udigits.os)
 .note.gnu.property
                0x0000000000000000       0x50 /home/saraj/Desktop/glibc_modified/build/libc_pic.a(lowlevellock.os)
 .note.gnu.property
                0x0000000000000000       0x50 /home/saraj/Desktop/glibc_modified/build/libc_pic.a(scratch_buffer_set_array_size.os)
 .note.gnu.property
                0x0000000000000000       0x50 /home/saraj/Desktop/glibc_modified/build/libc_pic.a(memchr.os)
 .note.gnu.property
                0x0000000000000000       0x50 /home/saraj/Desktop/glibc_modified/build/libc_pic.a(memcmp.os)
 .note.gnu.property
                0x0000000000000000       0x50 /home/saraj/Desktop/glibc_modified/build/libc_pic.a(memcpy.os)
 .note.gnu.property
                0x0000000000000000       0x50 /home/saraj/Desktop/glibc_modified/build/libc_pic.a(memmove.os)
 .note.gnu.property
                0x0000000000000000       0x50 /home/saraj/Desktop/glibc_modified/build/libc_pic.a(mempcpy.os)
 .note.gnu.property
                0x0000000000000000       0x50 /home/saraj/Desktop/glibc_modified/build/libc_pic.a(memset.os)
 .note.gnu.property
                0x0000000000000000       0x50 /home/saraj/Desktop/glibc_modified/build/libc_pic.a(stpcpy.os)
 .note.gnu.property
                0x0000000000000000       0x50 /home/saraj/Desktop/glibc_modified/build/libc_pic.a(strchr.os)
 .note.gnu.property
                0x0000000000000000       0x50 /home/saraj/Desktop/glibc_modified/build/libc_pic.a(strcmp.os)
 .note.gnu.property
                0x0000000000000000       0x50 /home/saraj/Desktop/glibc_modified/build/libc_pic.a(strcspn.os)
 .note.gnu.property
                0x0000000000000000       0x50 /home/saraj/Desktop/glibc_modified/build/libc_pic.a(strdup.os)
 .note.gnu.property
                0x0000000000000000       0x50 /home/saraj/Desktop/glibc_modified/build/libc_pic.a(strerrorname_np.os)
 .note.gnu.property
                0x0000000000000000       0x50 /home/saraj/Desktop/glibc_modified/build/libc_pic.a(strlen.os)
 .note.gnu.property
                0x0000000000000000       0x50 /home/saraj/Desktop/glibc_modified/build/libc_pic.a(strncmp.os)
 .note.gnu.property
                0x0000000000000000       0x50 /home/saraj/Desktop/glibc_modified/build/libc_pic.a(strnlen.os)
 .note.gnu.property
                0x0000000000000000       0x50 /home/saraj/Desktop/glibc_modified/build/libc_pic.a(memchr-avx2.os)
 .note.gnu.property
                0x0000000000000000       0x50 /home/saraj/Desktop/glibc_modified/build/libc_pic.a(memchr-avx2-rtm.os)
 .note.gnu.property
                0x0000000000000000       0x50 /home/saraj/Desktop/glibc_modified/build/libc_pic.a(memchr-evex.os)
 .note.gnu.property
                0x0000000000000000       0x50 /home/saraj/Desktop/glibc_modified/build/libc_pic.a(memchr-evex-rtm.os)
 .note.gnu.property
                0x0000000000000000       0x50 /home/saraj/Desktop/glibc_modified/build/libc_pic.a(memchr-sse2.os)
 .note.gnu.property
                0x0000000000000000       0x50 /home/saraj/Desktop/glibc_modified/build/libc_pic.a(memcmp-avx2-movbe.os)
 .note.gnu.property
                0x0000000000000000       0x50 /home/saraj/Desktop/glibc_modified/build/libc_pic.a(memcmp-avx2-movbe-rtm.os)
 .note.gnu.property
                0x0000000000000000       0x50 /home/saraj/Desktop/glibc_modified/build/libc_pic.a(memcmp-evex-movbe.os)
 .note.gnu.property
                0x0000000000000000       0x50 /home/saraj/Desktop/glibc_modified/build/libc_pic.a(memcmp-sse2.os)
 .note.gnu.property
                0x0000000000000000       0x50 /home/saraj/Desktop/glibc_modified/build/libc_pic.a(memmove-avx-unaligned-erms.os)
 .note.gnu.property
                0x0000000000000000       0x50 /home/saraj/Desktop/glibc_modified/build/libc_pic.a(memmove-avx-unaligned-erms-rtm.os)
 .note.gnu.property
                0x0000000000000000       0x50 /home/saraj/Desktop/glibc_modified/build/libc_pic.a(memmove-avx512-no-vzeroupper.os)
 .note.gnu.property
                0x0000000000000000       0x50 /home/saraj/Desktop/glibc_modified/build/libc_pic.a(memmove-avx512-unaligned-erms.os)
 .note.gnu.property
                0x0000000000000000       0x50 /home/saraj/Desktop/glibc_modified/build/libc_pic.a(memmove-erms.os)
 .note.gnu.property
                0x0000000000000000       0x50 /home/saraj/Desktop/glibc_modified/build/libc_pic.a(memmove-evex-unaligned-erms.os)
 .note.gnu.property
                0x0000000000000000       0x50 /home/saraj/Desktop/glibc_modified/build/libc_pic.a(memmove-sse2-unaligned-erms.os)
 .note.gnu.property
                0x0000000000000000       0x50 /home/saraj/Desktop/glibc_modified/build/libc_pic.a(memmove-ssse3.os)
 .note.gnu.property
                0x0000000000000000       0x50 /home/saraj/Desktop/glibc_modified/build/libc_pic.a(memset-avx2-unaligned-erms.os)
 .note.gnu.property
                0x0000000000000000       0x50 /home/saraj/Desktop/glibc_modified/build/libc_pic.a(memset-avx2-unaligned-erms-rtm.os)
 .note.gnu.property
                0x0000000000000000       0x50 /home/saraj/Desktop/glibc_modified/build/libc_pic.a(memset-avx512-no-vzeroupper.os)
 .note.gnu.property
                0x0000000000000000       0x50 /home/saraj/Desktop/glibc_modified/build/libc_pic.a(memset-avx512-unaligned-erms.os)
 .note.gnu.property
                0x0000000000000000       0x50 /home/saraj/Desktop/glibc_modified/build/libc_pic.a(memset-erms.os)
 .note.gnu.property
                0x0000000000000000       0x50 /home/saraj/Desktop/glibc_modified/build/libc_pic.a(memset-evex-unaligned-erms.os)
 .note.gnu.property
                0x0000000000000000       0x50 /home/saraj/Desktop/glibc_modified/build/libc_pic.a(memset-sse2-unaligned-erms.os)
 .note.gnu.property
                0x0000000000000000       0x50 /home/saraj/Desktop/glibc_modified/build/libc_pic.a(stpcpy-avx2.os)
 .note.gnu.property
                0x0000000000000000       0x50 /home/saraj/Desktop/glibc_modified/build/libc_pic.a(stpcpy-avx2-rtm.os)
 .note.gnu.property
                0x0000000000000000       0x50 /home/saraj/Desktop/glibc_modified/build/libc_pic.a(stpcpy-evex.os)
 .note.gnu.property
                0x0000000000000000       0x50 /home/saraj/Desktop/glibc_modified/build/libc_pic.a(stpcpy-sse2.os)
 .note.gnu.property
                0x0000000000000000       0x50 /home/saraj/Desktop/glibc_modified/build/libc_pic.a(stpcpy-sse2-unaligned.os)
 .note.gnu.property
                0x0000000000000000       0x50 /home/saraj/Desktop/glibc_modified/build/libc_pic.a(strchr-avx2.os)
 .note.gnu.property
                0x0000000000000000       0x50 /home/saraj/Desktop/glibc_modified/build/libc_pic.a(strchr-avx2-rtm.os)
 .note.gnu.property
                0x0000000000000000       0x50 /home/saraj/Desktop/glibc_modified/build/libc_pic.a(strchr-evex.os)
 .note.gnu.property
                0x0000000000000000       0x50 /home/saraj/Desktop/glibc_modified/build/libc_pic.a(strchr-sse2.os)
 .note.gnu.property
                0x0000000000000000       0x50 /home/saraj/Desktop/glibc_modified/build/libc_pic.a(strchr-sse2-no-bsf.os)
 .note.gnu.property
                0x0000000000000000       0x50 /home/saraj/Desktop/glibc_modified/build/libc_pic.a(strcmp-avx2.os)
 .note.gnu.property
                0x0000000000000000       0x50 /home/saraj/Desktop/glibc_modified/build/libc_pic.a(strcmp-avx2-rtm.os)
 .note.gnu.property
                0x0000000000000000       0x50 /home/saraj/Desktop/glibc_modified/build/libc_pic.a(strcmp-evex.os)
 .note.gnu.property
                0x0000000000000000       0x50 /home/saraj/Desktop/glibc_modified/build/libc_pic.a(strcmp-sse2.os)
 .note.gnu.property
                0x0000000000000000       0x50 /home/saraj/Desktop/glibc_modified/build/libc_pic.a(strcmp-sse2-unaligned.os)
 .note.gnu.property
                0x0000000000000000       0x50 /home/saraj/Desktop/glibc_modified/build/libc_pic.a(strcmp-sse4_2.os)
 .note.gnu.property
                0x0000000000000000       0x50 /home/saraj/Desktop/glibc_modified/build/libc_pic.a(strcspn-sse4.os)
 .note.gnu.property
                0x0000000000000000       0x50 /home/saraj/Desktop/glibc_modified/build/libc_pic.a(strlen-avx2.os)
 .note.gnu.property
                0x0000000000000000       0x50 /home/saraj/Desktop/glibc_modified/build/libc_pic.a(strlen-avx2-rtm.os)
 .note.gnu.property
                0x0000000000000000       0x50 /home/saraj/Desktop/glibc_modified/build/libc_pic.a(strlen-evex.os)
 .note.gnu.property
                0x0000000000000000       0x50 /home/saraj/Desktop/glibc_modified/build/libc_pic.a(strlen-sse2.os)
 .note.gnu.property
                0x0000000000000000       0x50 /home/saraj/Desktop/glibc_modified/build/libc_pic.a(strncmp-avx2.os)
 .note.gnu.property
                0x0000000000000000       0x50 /home/saraj/Desktop/glibc_modified/build/libc_pic.a(strncmp-avx2-rtm.os)
 .note.gnu.property
                0x0000000000000000       0x50 /home/saraj/Desktop/glibc_modified/build/libc_pic.a(strncmp-evex.os)
 .note.gnu.property
                0x0000000000000000       0x50 /home/saraj/Desktop/glibc_modified/build/libc_pic.a(strncmp-sse2.os)
 .note.gnu.property
                0x0000000000000000       0x50 /home/saraj/Desktop/glibc_modified/build/libc_pic.a(strncmp-sse4_2.os)
 .note.gnu.property
                0x0000000000000000       0x50 /home/saraj/Desktop/glibc_modified/build/libc_pic.a(strnlen-avx2.os)
 .note.gnu.property
                0x0000000000000000       0x50 /home/saraj/Desktop/glibc_modified/build/libc_pic.a(strnlen-avx2-rtm.os)
 .note.gnu.property
                0x0000000000000000       0x50 /home/saraj/Desktop/glibc_modified/build/libc_pic.a(strnlen-evex.os)
 .note.gnu.property
                0x0000000000000000       0x50 /home/saraj/Desktop/glibc_modified/build/libc_pic.a(strnlen-sse2.os)
 .note.gnu.property
                0x0000000000000000       0x50 /home/saraj/Desktop/glibc_modified/build/libc_pic.a(varshift.os)
 .note.gnu.property
                0x0000000000000000       0x50 /home/saraj/Desktop/glibc_modified/build/libc_pic.a(strcspn-generic.os)
 .note.gnu.property
                0x0000000000000000       0x50 /home/saraj/Desktop/glibc_modified/build/libc_pic.a(cacheinfo.os)
 .note.gnu.property
                0x0000000000000000       0x50 /home/saraj/Desktop/glibc_modified/build/libc_pic.a(closedir.os)
 .note.gnu.property
                0x0000000000000000       0x50 /home/saraj/Desktop/glibc_modified/build/libc_pic.a(fdopendir.os)
 .note.gnu.property
                0x0000000000000000       0x50 /home/saraj/Desktop/glibc_modified/build/libc_pic.a(readdir64.os)
 .note.gnu.property
                0x0000000000000000       0x50 /home/saraj/Desktop/glibc_modified/build/libc_pic.a(rewinddir.os)
 .note.gnu.property
                0x0000000000000000       0x50 /home/saraj/Desktop/glibc_modified/build/libc_pic.a(_exit.os)
 .note.gnu.property
                0x0000000000000000       0x50 /home/saraj/Desktop/glibc_modified/build/libc_pic.a(getpid.os)
 .note.gnu.property
                0x0000000000000000       0x50 /home/saraj/Desktop/glibc_modified/build/libc_pic.a(uname.os)
 .note.gnu.property
                0x0000000000000000       0x50 /home/saraj/Desktop/glibc_modified/build/libc_pic.a(environ.os)
 .note.gnu.property
                0x0000000000000000       0x50 /home/saraj/Desktop/glibc_modified/build/libc_pic.a(access.os)
 .note.gnu.property
                0x0000000000000000       0x50 /home/saraj/Desktop/glibc_modified/build/libc_pic.a(fstat64.os)
 .note.gnu.property
                0x0000000000000000       0x50 /home/saraj/Desktop/glibc_modified/build/libc_pic.a(fstatat64.os)
 .note.gnu.property
                0x0000000000000000       0x50 /home/saraj/Desktop/glibc_modified/build/libc_pic.a(lseek64.os)
 .note.gnu.property
                0x0000000000000000       0x50 /home/saraj/Desktop/glibc_modified/build/libc_pic.a(lstat64.os)
 .note.gnu.property
                0x0000000000000000       0x50 /home/saraj/Desktop/glibc_modified/build/libc_pic.a(openat64.os)
 .note.gnu.property
                0x0000000000000000       0x50 /home/saraj/Desktop/glibc_modified/build/libc_pic.a(stat64.os)
 .note.gnu.property
                0x0000000000000000       0x50 /home/saraj/Desktop/glibc_modified/build/libc_pic.a(close_nocancel.os)
 .note.gnu.property
                0x0000000000000000       0x50 /home/saraj/Desktop/glibc_modified/build/libc_pic.a(close_nocancel_nostatus.os)
 .note.gnu.property
                0x0000000000000000       0x50 /home/saraj/Desktop/glibc_modified/build/libc_pic.a(fcntl_nocancel.os)
 .note.gnu.property
                0x0000000000000000       0x50 /home/saraj/Desktop/glibc_modified/build/libc_pic.a(open64_nocancel.os)
 .note.gnu.property
                0x0000000000000000       0x50 /home/saraj/Desktop/glibc_modified/build/libc_pic.a(pread64_nocancel.os)
 .note.gnu.property
                0x0000000000000000       0x50 /home/saraj/Desktop/glibc_modified/build/libc_pic.a(read_nocancel.os)
 .note.gnu.property
                0x0000000000000000       0x50 /home/saraj/Desktop/glibc_modified/build/libc_pic.a(write_nocancel.os)
 .note.gnu.property
                0x0000000000000000       0x50 /home/saraj/Desktop/glibc_modified/build/libc_pic.a(fd_to_filename.os)
 .note.gnu.property
                0x0000000000000000       0x50 /home/saraj/Desktop/glibc_modified/build/libc_pic.a(mmap64.os)
 .note.gnu.property
                0x0000000000000000       0x50 /home/saraj/Desktop/glibc_modified/build/libc_pic.a(mprotect.os)
 .note.gnu.property
                0x0000000000000000       0x50 /home/saraj/Desktop/glibc_modified/build/libc_pic.a(munmap.os)
 .note.gnu.property
                0x0000000000000000       0x50 /home/saraj/Desktop/glibc_modified/build/libc_pic.a(setvmaname.os)
 .note.gnu.property
                0x0000000000000000       0x50 /home/saraj/Desktop/glibc_modified/build/libc_pic.a(prof-freq.os)
 .note.gnu.property
                0x0000000000000000       0x50 /home/saraj/Desktop/glibc_modified/build/libc_pic.a(profil.os)
 .note.gnu.property
                0x0000000000000000       0x50 /home/saraj/Desktop/glibc_modified/build/libc_pic.a(dl-addr-obj.os)
 .note.gnu.property
                0x0000000000000000       0x50 /home/saraj/Desktop/glibc_modified/build/libc_pic.a(libc_sigaction.os)
 .note.gnu.property
                0x0000000000000000       0x50 /home/saraj/Desktop/glibc_modified/build/libc_pic.a(errname.os)
 .note.gnu.property
                0x0000000000000000       0x50 /home/saraj/Desktop/glibc_modified/build/libc_pic.a(strchrnul.os)
 .note.gnu.property
                0x0000000000000000       0x50 /home/saraj/Desktop/glibc_modified/build/libc_pic.a(strchrnul-avx2.os)
 .note.gnu.property
                0x0000000000000000       0x50 /home/saraj/Desktop/glibc_modified/build/libc_pic.a(strchrnul-avx2-rtm.os)
 .note.gnu.property
                0x0000000000000000       0x50 /home/saraj/Desktop/glibc_modified/build/libc_pic.a(strchrnul-evex.os)
 .note.gnu.property
                0x0000000000000000       0x50 /home/saraj/Desktop/glibc_modified/build/libc_pic.a(strchrnul-sse2.os)
 .note.gnu.property
                0x0000000000000000       0x50 /home/saraj/Desktop/glibc_modified/build/libc_pic.a(setitimer.os)
 .note.gnu.property
                0x0000000000000000       0x50 /home/saraj/Desktop/glibc_modified/build/libc_pic.a(getdents64.os)

Memory Configuration

Name             Origin             Length             Attributes
*default*        0x0000000000000000 0xffffffffffffffff

Linker script and memory map

LOAD /home/saraj/Desktop/glibc_modified/build/elf/librtld.mapT.o
START GROUP
LOAD /home/saraj/Desktop/glibc_modified/build/elf/dl-allobjs.os
LOAD /home/saraj/Desktop/glibc_modified/build/libc_pic.a
LOAD /usr/lib/gcc/x86_64-linux-gnu/12/libgcc.a
END GROUP

.interp
 *(.interp)

.note.gnu.property
                0x0000000000000000       0x30
 .note.gnu.property
                0x0000000000000000       0x30 /home/saraj/Desktop/glibc_modified/build/elf/librtld.mapT.o

.note.gnu.build-id
 *(.note.gnu.build-id)

.hash
 *(.hash)

.gnu.hash
 *(.gnu.hash)

.dynsym
 *(.dynsym)

.dynstr
 *(.dynstr)

.gnu.version
 *(.gnu.version)

.gnu.version_d
 *(.gnu.version_d)

.gnu.version_r
 *(.gnu.version_r)

.rela.init
 *(.rela.init)

.rela.text
 *(.rela.text)

.rela.fini
 *(.rela.fini)

.rela.rodata
 *(.rela.rodata)

.rela.data.rel.ro
 *(.rela.data.rel.ro)

.rela.data
 *(.rela.data)

.rela.tdata
 *(.rela.tdata)

.rela.tbss
 *(.rela.tbss)

.rela.ctors
 *(.rela.ctors)

.rela.dtors
 *(.rela.dtors)

.rela.got
 *(.rela.got)

.rela.bss
 *(.rela.bss)

.rela.ldata
 *(.rela.ldata)

.rela.lbss
 *(.rela.lbss)

.rela.lrodata
 *(.rela.lrodata)

.rela.ifunc
 *(.rela.ifunc)

.rela.plt
 *(.rela.plt)

.relr.dyn
 *(.relr.dyn)

.init
 *(SORT_NONE(.init))

.plt
 *(.plt)

.plt.got
 *(.plt.got)

.plt.sec
 *(.plt.sec)

.text           0x0000000000000000    0x280c4
 *(.text .stub)
 .text          0x0000000000000000        0x0 /home/saraj/Desktop/glibc_modified/build/elf/librtld.mapT.o
                0x0000000000000000                __stack_chk_fail_local
                0x0000000000000000                malloc
                0x0000000000000000                __libc_assert_fail
                0x0000000000000000                __stack_chk_fail
                0x0000000000000000                calloc
                0x0000000000000000                realloc
                0x0000000000000000                __syscall_cancel
                0x0000000000000000                free
 .text          0x0000000000000000    0x211b4 /home/saraj/Desktop/glibc_modified/build/elf/dl-allobjs.os
                0x0000000000000000                _dl_call_libc_early_init
                0x0000000000000070                _dl_call_fini
                0x00000000000001c0                _dl_signal_exception
                0x00000000000001c0                __GI__dl_signal_exception
                0x0000000000000220                __GI__dl_signal_error
                0x0000000000000220                _dl_signal_error
                0x0000000000000290                _dl_signal_cexception
                0x0000000000000320                _dl_signal_cerror
                0x00000000000003a0                _dl_receive_error
                0x0000000000000440                _dl_catch_exception
                0x0000000000000440                __GI__dl_catch_exception
                0x00000000000005c0                _dl_catch_error
                0x0000000000000710                _dl_close_worker
                0x0000000000001500                _dl_close
                0x0000000000001570                _dl_debug_post_relocate
                0x00000000000015f0                _dl_debug_update
                0x0000000000001640                _dl_debug_change_state
                0x0000000000001680                _dl_debug_initialize
                0x0000000000001760                _dl_debug_state
                0x0000000000001760                __GI__dl_debug_state
                0x00000000000017b0                _dl_map_object_deps
                0x0000000000002810                _dl_error_free
                0x0000000000002840                _dl_exception_create
                0x0000000000002840                __GI__dl_exception_create
                0x0000000000002910                __GI__dl_exception_create_format
                0x0000000000002910                _dl_exception_create_format
                0x0000000000002d30                _dl_exception_free
                0x0000000000002d30                __GI__dl_exception_free
                0x0000000000002d60                _dl_make_stack_executable
                0x0000000000002db0                _dl_handle_execstack_tunable
                0x00000000000030d0                __GI__dl_find_object
                0x00000000000030d0                _dl_find_object
                0x0000000000003430                _dlfo_sort_mappings
                0x00000000000034f0                _dl_find_object_init
                0x00000000000036a0                _dl_find_object_update
                0x0000000000003ab0                _dl_find_object_dlclose
                0x0000000000003b80                _dl_find_object_freeres
                0x0000000000003bf0                _dl_fini
                0x0000000000003fa0                _dl_init
                0x0000000000005050                _dl_dst_count
                0x0000000000005100                _dl_dst_substitute
                0x0000000000005860                _dl_init_paths
                0x0000000000005bd0                _dl_process_pt_gnu_property
                0x00000000000077c0                _dl_lookup_map
                0x00000000000078c0                _dl_map_new_object
                0x00000000000083e0                _dl_map_object
                0x0000000000008450                _dl_rtld_di_serinfo
                0x00000000000093c0                _dl_lookup_symbol_x
                0x0000000000009f80                _dl_lookup_direct
                0x000000000000a120                __minimal_malloc
                0x000000000000a250                __minimal_calloc
                0x000000000000a290                __minimal_free
                0x000000000000a2d0                __minimal_realloc
                0x000000000000a350                _dl_sysdep_read_whole_file
                0x000000000000a3e0                _dl_name_match_p
                0x000000000000a450                _dl_higher_prime_number
                0x000000000000a4a0                _dl_strtoul
                0x000000000000a650                _dl_add_to_namespace_list
                0x000000000000a6f0                _dl_new_object
                0x000000000000af20                __GI__dl_find_dso_for_object
                0x000000000000af20                _dl_find_dso_for_object
                0x000000000000afd0                _dl_open
                0x000000000000b3e0                _dl_show_scope
                0x000000000000bee0                _dl_get_origin
                0x000000000000c030                _dl_canonicalize
                0x000000000000c670                _dl_debug_printf
                0x000000000000c720                _dl_debug_printf_c
                0x000000000000c7d0                _dl_dprintf
                0x000000000000c870                _dl_printf
                0x000000000000c920                _dl_error_printf
                0x000000000000c9d0                _dl_fatal_printf
                0x000000000000c9d0                __GI__dl_fatal_printf
                0x000000000000ca80                _dl_readonly_area
                0x000000000000cbe0                _dl_try_allocate_static_tls
                0x000000000000cd00                _dl_allocate_static_tls
                0x000000000000cd40                _dl_protect_relro
                0x000000000000cdc0                _dl_reloc_bad_type
                0x000000000000cea0                _dl_relocate_object_no_relro
                0x000000000000f5a0                _dl_relocate_object
                0x000000000000f5d0                _dl_fixup
                0x000000000000f870                _dl_profile_fixup
                0x000000000000fba0                _dl_scope_free
                0x000000000000fc70                _dl_setup_hash
                0x000000000000fe00                _dl_sort_maps_init
                0x000000000000fe30                _dl_sort_maps
                0x0000000000010340                __thread_gscope_wait
                0x0000000000010830                _dl_tls_static_surplus_init
                0x00000000000108d0                _dl_assign_tls_modid
                0x00000000000109b0                _dl_count_modids
                0x0000000000010a20                _dl_determine_tlsoffset
                0x0000000000010c00                _dl_get_tls_static_info
                0x0000000000010c20                _dl_allocate_tls_storage
                0x0000000000010d00                __GI__dl_allocate_tls_init
                0x0000000000010d00                _dl_allocate_tls_init
                0x0000000000010f30                __GI__dl_allocate_tls
                0x0000000000010f30                _dl_allocate_tls
                0x0000000000010f70                _dl_deallocate_tls
                0x0000000000010f70                __GI__dl_deallocate_tls
                0x0000000000011000                _dl_update_slotinfo
                0x0000000000011200                __GI___tls_get_addr
                0x0000000000011200                ___tls_get_addr
                0x0000000000011260                _dl_tls_get_addr_soft
                0x00000000000112e0                _dl_tls_initial_modid_limit_setup
                0x0000000000011330                _dl_add_to_slotinfo
                0x0000000000011480                _dl_init_static_tls
                0x00000000000115b0                __tls_get_addr_slow
                0x0000000000011600                __tls_pre_init_tp
                0x0000000000011660                __tls_init_tp
                0x00000000000117c0                _dl_runtime_profile_sse
                0x0000000000011950                _dl_runtime_resolve_fxsave
                0x00000000000119d0                _dl_runtime_resolve_xsave
                0x0000000000011aa0                _dl_runtime_resolve_xsavec
                0x0000000000011d00                __tunable_is_initialized
                0x0000000000011d00                __GI___tunable_is_initialized
                0x0000000000011d20                __GI___tunable_set_val
                0x0000000000011d40                __GI___tunables_init
                0x00000000000121d0                __GI___tunables_print
                0x00000000000122f0                __tunable_get_default
                0x00000000000122f0                __GI___tunable_get_default
                0x0000000000012340                __tunable_get_val
                0x0000000000012340                __GI___tunable_get_val
                0x00000000000123c0                _dl_check_map_versions
                0x0000000000012c30                _dl_check_all_versions
                0x0000000000012ca0                _dl_write
                0x0000000000012cb0                _dl_cache_libcmp
                0x00000000000133b0                _dl_load_cache_lookup
                0x0000000000013730                _dl_unload_cache
                0x00000000000139b0                _dl_cet_open_check
                0x0000000000013a50                _dl_cet_setup_features
                0x0000000000013ad0                _dl_cet_check
                0x0000000000016720                __x86_cpu_features
                0x0000000000016750                _dl_x86_init_cpu_features
                0x0000000000016770                _dl_x86_get_cpu_features
                0x0000000000016780                _dl_tlsdesc_return
                0x0000000000016790                _dl_tlsdesc_undefweak
                0x00000000000167b0                _dl_tlsdesc_dynamic_fxsave
                0x0000000000016870                _dl_tlsdesc_dynamic_xsave
                0x0000000000016980                _dl_tlsdesc_dynamic_xsavec
                0x0000000000016a80                __tls_get_addr
                0x0000000000016ad0                _dl_make_tlsdesc_dynamic
                0x0000000000016d90                _dl_unmap
                0x0000000000016e10                _dl_audit_activity_map
                0x0000000000016ea0                _dl_audit_activity_nsid
                0x0000000000016ee0                _dl_audit_objsearch
                0x0000000000016f90                _dl_audit_objopen
                0x0000000000017050                _dl_audit_objclose
                0x00000000000170f0                _dl_audit_preinit
                0x0000000000017170                _dl_audit_symbind_alt
                0x0000000000017170                __GI__dl_audit_symbind_alt
                0x0000000000017320                _dl_audit_symbind
                0x00000000000175b0                _dl_audit_pltenter
                0x00000000000177c0                _dl_audit_pltexit
                0x00000000000179a0                _dl_diagnostics_print_string
                0x0000000000017a20                _dl_diagnostics_print_labeled_string
                0x0000000000017a70                _dl_diagnostics_print_labeled_value
                0x0000000000017a90                _dl_print_diagnostics
                0x0000000000018810                _dl_diagnostics_cpu
                0x0000000000018fe0                _dl_diagnostics_kernel
                0x00000000000190b0                _dl_next_ld_env_entry
                0x0000000000019100                unsetenv
                0x0000000000019230                _dl_important_hwcaps
                0x00000000000195a0                _dl_hwcaps_subdirs_active
                0x0000000000019680                _dl_hwcaps_split
                0x0000000000019720                _dl_hwcaps_contains
                0x00000000000197e0                _dl_hwcaps_split_masked
                0x0000000000019890                __rtld_libc_freeres
                0x00000000000199f0                __rtld_malloc_init_stubs
                0x0000000000019a30                __sigjmp_save
                0x0000000000019a40                __strerror_r
                0x0000000000019b00                __GI___libc_fatal
                0x0000000000019b00                __libc_fatal
                0x0000000000019b20                __GI___chk_fail
                0x0000000000019b20                __chk_fail
                0x0000000000019b40                __rtld_malloc_is_complete
                0x0000000000019c50                __rtld_malloc_init_real
                0x0000000000019d40                _itoa
                0x0000000000019d80                __strsep
                0x0000000000019d80                strsep
                0x0000000000019d80                __strsep_g
                0x0000000000019df0                __rtld_mutex_init
                0x0000000000019ec0                _dl_start_profile
                0x000000000001a670                __GI__dl_mcount
                0x000000000001a670                _dl_mcount
                0x000000000001aa30                _dl_tunable_set_hwcaps
                0x000000000001b4d0                _dl_tunable_set_x86_ibt
                0x000000000001b560                _dl_tunable_set_x86_shstk
                0x000000000001b5f0                _dl_sysdep_start
                0x000000000001b6b0                _dl_sysdep_start_cleanup
                0x000000000001b6c0                _dl_show_auxv
                0x000000000001b890                _dl_usage
                0x000000000001b8e0                _dl_version
                0x000000000001b900                _dl_help
                0x000000000001bbc0                _start
                0x000000000001bbc8                _dl_start_user
                0x000000000001cd40                handle_preload_list
                0x0000000000020980                __brk
                0x0000000000020980                brk
                0x00000000000209b0                __getcwd
                0x00000000000209b0                getcwd
                0x0000000000020f90                openat64
                0x0000000000020fd0                __alloc_dir
                0x00000000000210a0                __opendir
                0x00000000000210a0                opendir
                0x0000000000021130                sbrk
                0x0000000000021130                __sbrk
 *fill*         0x00000000000211b4        0xc 
 .text          0x00000000000211c0       0xe6 /home/saraj/Desktop/glibc_modified/build/libc_pic.a(check_fds.os)
                0x0000000000021270                __libc_check_standard_fds
 .text          0x00000000000212a6        0x0 /home/saraj/Desktop/glibc_modified/build/libc_pic.a(errno.os)
 *fill*         0x00000000000212a6        0xa 
 .text          0x00000000000212b0       0x72 /home/saraj/Desktop/glibc_modified/build/libc_pic.a(setjmp.os)
                0x00000000000212b0                __sigsetjmp
                0x00000000000212b0                __GI___sigsetjmp
 *fill*         0x0000000000021322        0xe 
 .text          0x0000000000021330       0xc0 /home/saraj/Desktop/glibc_modified/build/libc_pic.a(__longjmp.os)
                0x0000000000021330                __longjmp
 .text          0x00000000000213f0       0xa5 /home/saraj/Desktop/glibc_modified/build/libc_pic.a(getenv.os)
                0x00000000000213f0                getenv
                0x00000000000213f0                __GI_getenv
 *fill*         0x0000000000021495        0xb 
 .text          0x00000000000214a0      0x140 /home/saraj/Desktop/glibc_modified/build/libc_pic.a(_fitoa_word.os)
                0x00000000000214a0                _itoa_word
                0x0000000000021590                _fitoa_word
 .text          0x00000000000215e0        0x0 /home/saraj/Desktop/glibc_modified/build/libc_pic.a(itoa-udigits.os)
 .text          0x00000000000215e0       0xf8 /home/saraj/Desktop/glibc_modified/build/libc_pic.a(lowlevellock.os)
                0x00000000000215e0                __GI___lll_lock_wait_private
                0x00000000000215e0                __lll_lock_wait_private
                0x0000000000021640                __lll_lock_wait
                0x0000000000021640                __GI___lll_lock_wait
                0x00000000000216a0                __lll_lock_wake_private
                0x00000000000216a0                __GI___lll_lock_wake_private
                0x00000000000216c0                __lll_lock_wake
                0x00000000000216c0                __GI___lll_lock_wake
 *fill*         0x00000000000216d8        0x8 
 .text          0x00000000000216e0       0xa5 /home/saraj/Desktop/glibc_modified/build/libc_pic.a(scratch_buffer_set_array_size.os)
                0x00000000000216e0                __libc_scratch_buffer_set_array_size
                0x00000000000216e0                __GI___libc_scratch_buffer_set_array_size
 *fill*         0x0000000000021785        0xb 
 .text          0x0000000000021790       0x8d /home/saraj/Desktop/glibc_modified/build/libc_pic.a(memchr.os)
                0x0000000000021790                __GI_memchr
                0x0000000000021790                memchr
                0x0000000000021790                __memchr
 *fill*         0x000000000002181d        0x3 
 .text          0x0000000000021820       0x71 /home/saraj/Desktop/glibc_modified/build/libc_pic.a(memcmp.os)
                0x0000000000021820                bcmp
                0x0000000000021820                __GI_memcmp
                0x0000000000021820                memcmp
 *fill*         0x0000000000021891        0xf 
 .text          0x00000000000218a0      0x119 /home/saraj/Desktop/glibc_modified/build/libc_pic.a(memcpy.os)
                0x00000000000218a0                __GI_memcpy
                0x00000000000218a0                __new_memcpy
                0x00000000000218a0                memcpy@@GLIBC_2.14
 *fill*         0x00000000000219b9        0x7 
 .text          0x00000000000219c0      0x119 /home/saraj/Desktop/glibc_modified/build/libc_pic.a(memmove.os)
                0x00000000000219c0                memmove
                0x00000000000219c0                __GI_memmove
                0x00000000000219c0                __libc_memmove
 *fill*         0x0000000000021ad9        0x7 
 .text          0x0000000000021ae0      0x119 /home/saraj/Desktop/glibc_modified/build/libc_pic.a(mempcpy.os)
                0x0000000000021ae0                mempcpy
                0x0000000000021ae0                __GI_mempcpy
                0x0000000000021ae0                __mempcpy
                0x0000000000021ae0                __GI___mempcpy
 *fill*         0x0000000000021bf9        0x7 
 .text          0x0000000000021c00      0x12b /home/saraj/Desktop/glibc_modified/build/libc_pic.a(memset.os)
                0x0000000000021c00                __GI_memset
                0x0000000000021c00                memset
 *fill*         0x0000000000021d2b        0x5 
 .text          0x0000000000021d30       0x71 /home/saraj/Desktop/glibc_modified/build/libc_pic.a(stpcpy.os)
                0x0000000000021d30                stpcpy
                0x0000000000021d30                __GI_stpcpy
                0x0000000000021d30                __stpcpy
                0x0000000000021d30                __GI___stpcpy
 *fill*         0x0000000000021da1        0xf 
 .text          0x0000000000021db0       0x78 /home/saraj/Desktop/glibc_modified/build/libc_pic.a(strchr.os)
                0x0000000000021db0                __GI_strchr
                0x0000000000021db0                index
                0x0000000000021db0                strchr
 *fill*         0x0000000000021e28        0x8 
 .text          0x0000000000021e30       0x88 /home/saraj/Desktop/glibc_modified/build/libc_pic.a(strcmp.os)
                0x0000000000021e30                __GI_strcmp
                0x0000000000021e30                strcmp
 *fill*         0x0000000000021eb8        0x8 
 .text          0x0000000000021ec0       0x25 /home/saraj/Desktop/glibc_modified/build/libc_pic.a(strcspn.os)
                0x0000000000021ec0                strcspn
                0x0000000000021ec0                __GI_strcspn
 *fill*         0x0000000000021ee5        0xb 
 .text          0x0000000000021ef0       0x3d /home/saraj/Desktop/glibc_modified/build/libc_pic.a(strdup.os)
                0x0000000000021ef0                __GI___strdup
                0x0000000000021ef0                __strdup
                0x0000000000021ef0                strdup
 *fill*         0x0000000000021f2d        0x3 
 .text          0x0000000000021f30        0x9 /home/saraj/Desktop/glibc_modified/build/libc_pic.a(strerrorname_np.os)
                0x0000000000021f30                strerrorname_np
 *fill*         0x0000000000021f39        0x7 
 .text          0x0000000000021f40       0x81 /home/saraj/Desktop/glibc_modified/build/libc_pic.a(strlen.os)
                0x0000000000021f40                strlen
                0x0000000000021f40                __GI_strlen
 *fill*         0x0000000000021fc1        0xf 
 .text          0x0000000000021fd0       0x91 /home/saraj/Desktop/glibc_modified/build/libc_pic.a(strncmp.os)
                0x0000000000021fd0                __GI_strncmp
                0x0000000000021fd0                strncmp
 *fill*         0x0000000000022061        0xf 
 .text          0x0000000000022070       0x81 /home/saraj/Desktop/glibc_modified/build/libc_pic.a(strnlen.os)
                0x0000000000022070                __strnlen
                0x0000000000022070                strnlen
                0x0000000000022070                __GI___strnlen
                0x0000000000022070                __GI_strnlen
 .text          0x00000000000220f1        0x0 /home/saraj/Desktop/glibc_modified/build/libc_pic.a(memchr-avx2.os)
 .text          0x00000000000220f1        0x0 /home/saraj/Desktop/glibc_modified/build/libc_pic.a(memchr-avx2-rtm.os)
 .text          0x00000000000220f1        0x0 /home/saraj/Desktop/glibc_modified/build/libc_pic.a(memchr-evex.os)
 .text          0x00000000000220f1        0x0 /home/saraj/Desktop/glibc_modified/build/libc_pic.a(memchr-evex-rtm.os)
 *fill*         0x00000000000220f1        0xf 
 .text          0x0000000000022100      0x323 /home/saraj/Desktop/glibc_modified/build/libc_pic.a(memchr-sse2.os)
                0x0000000000022100                __memchr_sse2
 .text          0x0000000000022423        0x0 /home/saraj/Desktop/glibc_modified/build/libc_pic.a(memcmp-avx2-movbe.os)
 .text          0x0000000000022423        0x0 /home/saraj/Desktop/glibc_modified/build/libc_pic.a(memcmp-avx2-movbe-rtm.os)
 .text          0x0000000000022423        0x0 /home/saraj/Desktop/glibc_modified/build/libc_pic.a(memcmp-evex-movbe.os)
 *fill*         0x0000000000022423       0x1d 
 .text          0x0000000000022440      0x2d0 /home/saraj/Desktop/glibc_modified/build/libc_pic.a(memcmp-sse2.os)
                0x0000000000022440                __memcmp_sse2
 .text          0x0000000000022710        0x0 /home/saraj/Desktop/glibc_modified/build/libc_pic.a(memmove-avx-unaligned-erms.os)
 .text          0x0000000000022710        0x0 /home/saraj/Desktop/glibc_modified/build/libc_pic.a(memmove-avx-unaligned-erms-rtm.os)
 .text          0x0000000000022710        0x0 /home/saraj/Desktop/glibc_modified/build/libc_pic.a(memmove-avx512-no-vzeroupper.os)
 .text          0x0000000000022710        0x0 /home/saraj/Desktop/glibc_modified/build/libc_pic.a(memmove-avx512-unaligned-erms.os)
 .text          0x0000000000022710       0x71 /home/saraj/Desktop/glibc_modified/build/libc_pic.a(memmove-erms.os)
                0x0000000000022710                __mempcpy_chk_erms
                0x0000000000022720                __mempcpy_erms
                0x0000000000022740                __memcpy_chk_erms
                0x0000000000022740                __memmove_chk_erms
                0x0000000000022750                __memmove_erms
                0x0000000000022750                __memcpy_erms
 .text          0x0000000000022781        0x0 /home/saraj/Desktop/glibc_modified/build/libc_pic.a(memmove-evex-unaligned-erms.os)
 *fill*         0x0000000000022781       0x3f 
 .text          0x00000000000227c0      0x612 /home/saraj/Desktop/glibc_modified/build/libc_pic.a(memmove-sse2-unaligned-erms.os)
                0x00000000000227c0                __mempcpy_chk_sse2_unaligned
                0x00000000000227d0                __mempcpy_sse2_unaligned
                0x00000000000227e0                __memcpy_chk_sse2_unaligned
                0x00000000000227e0                __memmove_chk_sse2_unaligned
                0x00000000000227f0                __memmove_sse2_unaligned
                0x00000000000227f0                __memcpy_sse2_unaligned
                0x00000000000227f0                memcpy@GLIBC_2.2.5
                0x0000000000022820                __mempcpy_chk_sse2_unaligned_erms
                0x0000000000022830                __mempcpy_sse2_unaligned_erms
                0x0000000000022840                __memmove_chk_sse2_unaligned_erms
                0x0000000000022840                __memcpy_chk_sse2_unaligned_erms
                0x0000000000022880                __memmove_sse2_unaligned_erms
                0x0000000000022880                __memcpy_sse2_unaligned_erms
 .text          0x0000000000022dd2        0x0 /home/saraj/Desktop/glibc_modified/build/libc_pic.a(memmove-ssse3.os)
 .text          0x0000000000022dd2        0x0 /home/saraj/Desktop/glibc_modified/build/libc_pic.a(memset-avx2-unaligned-erms.os)
 .text          0x0000000000022dd2        0x0 /home/saraj/Desktop/glibc_modified/build/libc_pic.a(memset-avx2-unaligned-erms-rtm.os)
 .text          0x0000000000022dd2        0x0 /home/saraj/Desktop/glibc_modified/build/libc_pic.a(memset-avx512-no-vzeroupper.os)
 .text          0x0000000000022dd2        0x0 /home/saraj/Desktop/glibc_modified/build/libc_pic.a(memset-avx512-unaligned-erms.os)
 *fill*         0x0000000000022dd2        0xe 
 .text          0x0000000000022de0       0x2d /home/saraj/Desktop/glibc_modified/build/libc_pic.a(memset-erms.os)
                0x0000000000022de0                __memset_chk_erms
                0x0000000000022df0                __memset_erms
 .text          0x0000000000022e0d        0x0 /home/saraj/Desktop/glibc_modified/build/libc_pic.a(memset-evex-unaligned-erms.os)
 *fill*         0x0000000000022e0d       0x33 
 .text          0x0000000000022e40      0x1ff /home/saraj/Desktop/glibc_modified/build/libc_pic.a(memset-sse2-unaligned-erms.os)
                0x0000000000022e40                __wmemset_chk_sse2_unaligned
                0x0000000000022e50                __wmemset_sse2_unaligned
                0x0000000000022e70                __memset_chk_sse2_unaligned
                0x0000000000022e80                __memset_sse2_unaligned
                0x0000000000022ec0                __memset_chk_sse2_unaligned_erms
                0x0000000000022f00                __memset_sse2_unaligned_erms
 .text          0x000000000002303f        0x0 /home/saraj/Desktop/glibc_modified/build/libc_pic.a(stpcpy-avx2.os)
 .text          0x000000000002303f        0x0 /home/saraj/Desktop/glibc_modified/build/libc_pic.a(stpcpy-avx2-rtm.os)
 .text          0x000000000002303f        0x0 /home/saraj/Desktop/glibc_modified/build/libc_pic.a(stpcpy-evex.os)
 *fill*         0x000000000002303f        0x1 
 .text          0x0000000000023040       0xec /home/saraj/Desktop/glibc_modified/build/libc_pic.a(stpcpy-sse2.os)
                0x0000000000023040                __stpcpy_sse2
 *fill*         0x000000000002312c        0x4 
 .text          0x0000000000023130      0x6c0 /home/saraj/Desktop/glibc_modified/build/libc_pic.a(stpcpy-sse2-unaligned.os)
                0x0000000000023130                __stpcpy_sse2_unaligned
 .text          0x00000000000237f0        0x0 /home/saraj/Desktop/glibc_modified/build/libc_pic.a(strchr-avx2.os)
 .text          0x00000000000237f0        0x0 /home/saraj/Desktop/glibc_modified/build/libc_pic.a(strchr-avx2-rtm.os)
 .text          0x00000000000237f0        0x0 /home/saraj/Desktop/glibc_modified/build/libc_pic.a(strchr-evex.os)
 .text          0x00000000000237f0      0x22a /home/saraj/Desktop/glibc_modified/build/libc_pic.a(strchr-sse2.os)
                0x00000000000237f0                __strchr_sse2
 .text          0x0000000000023a1a        0x0 /home/saraj/Desktop/glibc_modified/build/libc_pic.a(strchr-sse2-no-bsf.os)
 .text          0x0000000000023a1a        0x0 /home/saraj/Desktop/glibc_modified/build/libc_pic.a(strcmp-avx2.os)
 .text          0x0000000000023a1a        0x0 /home/saraj/Desktop/glibc_modified/build/libc_pic.a(strcmp-avx2-rtm.os)
 .text          0x0000000000023a1a        0x0 /home/saraj/Desktop/glibc_modified/build/libc_pic.a(strcmp-evex.os)
 *fill*         0x0000000000023a1a        0x6 
 .text          0x0000000000023a20     0x1449 /home/saraj/Desktop/glibc_modified/build/libc_pic.a(strcmp-sse2.os)
                0x0000000000023a20                __strcmp_sse2
 *fill*         0x0000000000024e69        0x7 
 .text          0x0000000000024e70      0x2a3 /home/saraj/Desktop/glibc_modified/build/libc_pic.a(strcmp-sse2-unaligned.os)
                0x0000000000024e70                __strcmp_sse2_unaligned
 .text          0x0000000000025113        0x0 /home/saraj/Desktop/glibc_modified/build/libc_pic.a(strcmp-sse4_2.os)
 .text          0x0000000000025113        0x0 /home/saraj/Desktop/glibc_modified/build/libc_pic.a(strcspn-sse4.os)
 .text          0x0000000000025113        0x0 /home/saraj/Desktop/glibc_modified/build/libc_pic.a(strlen-avx2.os)
 .text          0x0000000000025113        0x0 /home/saraj/Desktop/glibc_modified/build/libc_pic.a(strlen-avx2-rtm.os)
 .text          0x0000000000025113        0x0 /home/saraj/Desktop/glibc_modified/build/libc_pic.a(strlen-evex.os)
 *fill*         0x0000000000025113        0xd 
 .text          0x0000000000025120      0x19c /home/saraj/Desktop/glibc_modified/build/libc_pic.a(strlen-sse2.os)
                0x0000000000025120                __strlen_sse2
 .text          0x00000000000252bc        0x0 /home/saraj/Desktop/glibc_modified/build/libc_pic.a(strncmp-avx2.os)
 .text          0x00000000000252bc        0x0 /home/saraj/Desktop/glibc_modified/build/libc_pic.a(strncmp-avx2-rtm.os)
 .text          0x00000000000252bc        0x0 /home/saraj/Desktop/glibc_modified/build/libc_pic.a(strncmp-evex.os)
 *fill*         0x00000000000252bc        0x4 
 .text          0x00000000000252c0     0x1859 /home/saraj/Desktop/glibc_modified/build/libc_pic.a(strncmp-sse2.os)
                0x00000000000252c0                __strncmp_sse2
 .text          0x0000000000026b19        0x0 /home/saraj/Desktop/glibc_modified/build/libc_pic.a(strncmp-sse4_2.os)
 .text          0x0000000000026b19        0x0 /home/saraj/Desktop/glibc_modified/build/libc_pic.a(strnlen-avx2.os)
 .text          0x0000000000026b19        0x0 /home/saraj/Desktop/glibc_modified/build/libc_pic.a(strnlen-avx2-rtm.os)
 .text          0x0000000000026b19        0x0 /home/saraj/Desktop/glibc_modified/build/libc_pic.a(strnlen-evex.os)
 *fill*         0x0000000000026b19        0x7 
 .text          0x0000000000026b20      0x218 /home/saraj/Desktop/glibc_modified/build/libc_pic.a(strnlen-sse2.os)
                0x0000000000026b20                __strnlen_sse2
 .text          0x0000000000026d38        0x0 /home/saraj/Desktop/glibc_modified/build/libc_pic.a(varshift.os)
 *fill*         0x0000000000026d38        0x8 
 .text          0x0000000000026d40      0x167 /home/saraj/Desktop/glibc_modified/build/libc_pic.a(strcspn-generic.os)
                0x0000000000026d40                __strcspn_generic
 *fill*         0x0000000000026ea7        0x9 
 .text          0x0000000000026eb0      0x1a8 /home/saraj/Desktop/glibc_modified/build/libc_pic.a(cacheinfo.os)
                0x0000000000026eb0                __x86_cacheinfo
                0x0000000000026f60                __cache_sysconf
 *fill*         0x0000000000027058        0x8 
 .text          0x0000000000027060       0x2d /home/saraj/Desktop/glibc_modified/build/libc_pic.a(closedir.os)
                0x0000000000027060                __closedir
                0x0000000000027060                closedir
 *fill*         0x000000000002708d        0x3 
 .text          0x0000000000027090       0xb2 /home/saraj/Desktop/glibc_modified/build/libc_pic.a(fdopendir.os)
                0x0000000000027090                fdopendir
                0x0000000000027090                __fdopendir
 *fill*         0x0000000000027142        0xe 
 .text          0x0000000000027150       0xec /home/saraj/Desktop/glibc_modified/build/libc_pic.a(readdir64.os)
                0x0000000000027150                readdir
                0x0000000000027150                __readdir64
                0x0000000000027150                __readdir
                0x0000000000027150                __GI___readdir64
                0x0000000000027150                readdir64
 *fill*         0x000000000002723c        0x4 
 .text          0x0000000000027240       0x76 /home/saraj/Desktop/glibc_modified/build/libc_pic.a(rewinddir.os)
                0x0000000000027240                rewinddir
                0x0000000000027240                __rewinddir
                0x0000000000027240                __GI___rewinddir
 *fill*         0x00000000000272b6        0xa 
 .text          0x00000000000272c0       0x2c /home/saraj/Desktop/glibc_modified/build/libc_pic.a(_exit.os)
                0x00000000000272c0                _Exit
                0x00000000000272c0                __GI__exit
                0x00000000000272c0                _exit
 *fill*         0x00000000000272ec        0x4 
 .text          0x00000000000272f0        0xc /home/saraj/Desktop/glibc_modified/build/libc_pic.a(getpid.os)
                0x00000000000272f0                __getpid
                0x00000000000272f0                getpid
                0x00000000000272f0                __GI_getpid
                0x00000000000272f0                __GI___getpid
 *fill*         0x00000000000272fc        0x4 
 .text          0x0000000000027300       0x25 /home/saraj/Desktop/glibc_modified/build/libc_pic.a(uname.os)
                0x0000000000027300                uname
                0x0000000000027300                __GI_uname
                0x0000000000027300                __uname
                0x0000000000027300                __GI___uname
 .text          0x0000000000027325        0x0 /home/saraj/Desktop/glibc_modified/build/libc_pic.a(environ.os)
 *fill*         0x0000000000027325        0xb 
 .text          0x0000000000027330       0x2a /home/saraj/Desktop/glibc_modified/build/libc_pic.a(access.os)
                0x0000000000027330                __GI___access
                0x0000000000027330                access
                0x0000000000027330                __access
 *fill*         0x000000000002735a        0x6 
 .text          0x0000000000027360       0x2a /home/saraj/Desktop/glibc_modified/build/libc_pic.a(fstat64.os)
                0x0000000000027360                __GI___fstat64
                0x0000000000027360                fstat64
                0x0000000000027360                fstat
                0x0000000000027360                __fstat64
                0x0000000000027360                __fstat
 *fill*         0x000000000002738a        0x6 
 .text          0x0000000000027390       0x32 /home/saraj/Desktop/glibc_modified/build/libc_pic.a(fstatat64.os)
                0x0000000000027390                fstatat
                0x0000000000027390                __fstatat
                0x0000000000027390                fstatat64
                0x0000000000027390                __fstatat64
                0x0000000000027390                __GI___fstatat
                0x0000000000027390                __GI___fstatat64
 *fill*         0x00000000000273c2        0xe 
 .text          0x00000000000273d0       0x2c /home/saraj/Desktop/glibc_modified/build/libc_pic.a(lseek64.os)
                0x00000000000273d0                __GI___lseek
                0x00000000000273d0                __lseek64
                0x00000000000273d0                lseek
                0x00000000000273d0                __libc_lseek64
                0x00000000000273d0                llseek@GLIBC_2.2.5
                0x00000000000273d0                __lseek
                0x00000000000273d0                __libc_lseek
                0x00000000000273d0                lseek64
 *fill*         0x00000000000273fc        0x4 
 .text          0x0000000000027400       0x19 /home/saraj/Desktop/glibc_modified/build/libc_pic.a(lstat64.os)
                0x0000000000027400                __lstat64
                0x0000000000027400                lstat
                0x0000000000027400                lstat64
                0x0000000000027400                __GI___lstat64
                0x0000000000027400                __lstat
 *fill*         0x0000000000027419        0x7 
 .text          0x0000000000027420       0x6a /home/saraj/Desktop/glibc_modified/build/libc_pic.a(openat64.os)
                0x0000000000027420                __openat64
                0x0000000000027420                __GI___openat
                0x0000000000027420                __GI___openat64
                0x0000000000027420                __libc_openat64
                0x0000000000027420                __openat
                0x0000000000027420                openat
 *fill*         0x000000000002748a        0x6 
 .text          0x0000000000027490       0x16 /home/saraj/Desktop/glibc_modified/build/libc_pic.a(stat64.os)
                0x0000000000027490                stat64
                0x0000000000027490                __stat
                0x0000000000027490                __stat64
                0x0000000000027490                stat
                0x0000000000027490                __GI___stat64
 *fill*         0x00000000000274a6        0xa 
 .text          0x00000000000274b0       0x2a /home/saraj/Desktop/glibc_modified/build/libc_pic.a(close_nocancel.os)
                0x00000000000274b0                __GI___close_nocancel
                0x00000000000274b0                __close_nocancel
 *fill*         0x00000000000274da        0x6 
 .text          0x00000000000274e0        0xc /home/saraj/Desktop/glibc_modified/build/libc_pic.a(close_nocancel_nostatus.os)
                0x00000000000274e0                __GI___close_nocancel_nostatus
                0x00000000000274e0                __close_nocancel_nostatus
 *fill*         0x00000000000274ec        0x4 
 .text          0x00000000000274f0       0xde /home/saraj/Desktop/glibc_modified/build/libc_pic.a(fcntl_nocancel.os)
                0x00000000000274f0                __fcntl64_nocancel
                0x00000000000274f0                __GI___fcntl64_nocancel
                0x0000000000027570                __fcntl64_nocancel_adjusted
 *fill*         0x00000000000275ce        0x2 
 .text          0x00000000000275d0       0x7a /home/saraj/Desktop/glibc_modified/build/libc_pic.a(open64_nocancel.os)
                0x00000000000275d0                __GI___open_nocancel
                0x00000000000275d0                __open_nocancel
                0x00000000000275d0                __GI___open64_nocancel
                0x00000000000275d0                __open64_nocancel
 *fill*         0x000000000002764a        0x6 
 .text          0x0000000000027650       0x34 /home/saraj/Desktop/glibc_modified/build/libc_pic.a(pread64_nocancel.os)
                0x0000000000027650                __GI___pread64_nocancel
                0x0000000000027650                __pread64_nocancel
 *fill*         0x0000000000027684        0xc 
 .text          0x0000000000027690       0x2c /home/saraj/Desktop/glibc_modified/build/libc_pic.a(read_nocancel.os)
                0x0000000000027690                __read_nocancel
                0x0000000000027690                __GI___read_nocancel
 *fill*         0x00000000000276bc        0x4 
 .text          0x00000000000276c0       0x2c /home/saraj/Desktop/glibc_modified/build/libc_pic.a(write_nocancel.os)
                0x00000000000276c0                __GI___write_nocancel
                0x00000000000276c0                __write_nocancel
 *fill*         0x00000000000276ec        0x4 
 .text          0x00000000000276f0       0x62 /home/saraj/Desktop/glibc_modified/build/libc_pic.a(fd_to_filename.os)
                0x00000000000276f0                __fd_to_filename
 *fill*         0x0000000000027752        0xe 
 .text          0x0000000000027760       0xb8 /home/saraj/Desktop/glibc_modified/build/libc_pic.a(mmap64.os)
                0x0000000000027760                __GI___mmap
                0x0000000000027760                __mmap
                0x0000000000027760                mmap
                0x0000000000027760                __GI___mmap64
                0x0000000000027760                __mmap64
                0x0000000000027760                mmap64
 *fill*         0x0000000000027818        0x8 
 .text          0x0000000000027820       0x25 /home/saraj/Desktop/glibc_modified/build/libc_pic.a(mprotect.os)
                0x0000000000027820                __mprotect
                0x0000000000027820                __GI___mprotect
                0x0000000000027820                __GI_mprotect
                0x0000000000027820                mprotect
 *fill*         0x0000000000027845        0xb 
 .text          0x0000000000027850       0x25 /home/saraj/Desktop/glibc_modified/build/libc_pic.a(munmap.os)
                0x0000000000027850                munmap
                0x0000000000027850                __GI___munmap
                0x0000000000027850                __GI_munmap
                0x0000000000027850                __munmap
 *fill*         0x0000000000027875        0xb 
 .text          0x0000000000027880       0xbf /home/saraj/Desktop/glibc_modified/build/libc_pic.a(setvmaname.os)
                0x0000000000027880                __is_decorate_maps_enabled
                0x00000000000278f0                __set_vma_name
 *fill*         0x000000000002793f        0x1 
 .text          0x0000000000027940        0xf /home/saraj/Desktop/glibc_modified/build/libc_pic.a(prof-freq.os)
                0x0000000000027940                __GI___profile_frequency
                0x0000000000027940                __profile_frequency
 *fill*         0x000000000002794f        0x1 
 .text          0x0000000000027950      0x1e2 /home/saraj/Desktop/glibc_modified/build/libc_pic.a(profil.os)
                0x00000000000279a0                __profil
                0x00000000000279a0                profil
 *fill*         0x0000000000027b32        0xe 
 .text          0x0000000000027b40       0x7b /home/saraj/Desktop/glibc_modified/build/libc_pic.a(dl-addr-obj.os)
                0x0000000000027b40                _dl_addr_inside_object
 *fill*         0x0000000000027bbb        0x5 
 .text          0x0000000000027bc0      0x1bb /home/saraj/Desktop/glibc_modified/build/libc_pic.a(libc_sigaction.os)
                0x0000000000027be0                __libc_sigaction
                0x0000000000027be0                __GI___libc_sigaction
 *fill*         0x0000000000027d7b        0x5 
 .text          0x0000000000027d80       0x33 /home/saraj/Desktop/glibc_modified/build/libc_pic.a(errname.os)
                0x0000000000027d80                __get_errname
 *fill*         0x0000000000027db3        0xd 
 .text          0x0000000000027dc0       0x81 /home/saraj/Desktop/glibc_modified/build/libc_pic.a(strchrnul.os)
                0x0000000000027dc0                __GI___strchrnul
                0x0000000000027dc0                __strchrnul
                0x0000000000027dc0                strchrnul
 .text          0x0000000000027e41        0x0 /home/saraj/Desktop/glibc_modified/build/libc_pic.a(strchrnul-avx2.os)
 .text          0x0000000000027e41        0x0 /home/saraj/Desktop/glibc_modified/build/libc_pic.a(strchrnul-avx2-rtm.os)
 .text          0x0000000000027e41        0x0 /home/saraj/Desktop/glibc_modified/build/libc_pic.a(strchrnul-evex.os)
 *fill*         0x0000000000027e41        0xf 
 .text          0x0000000000027e50      0x20a /home/saraj/Desktop/glibc_modified/build/libc_pic.a(strchrnul-sse2.os)
                0x0000000000027e50                __strchrnul_sse2
 *fill*         0x000000000002805a        0x6 
 .text          0x0000000000028060       0x2a /home/saraj/Desktop/glibc_modified/build/libc_pic.a(setitimer.os)
                0x0000000000028060                setitimer
                0x0000000000028060                __setitimer
 *fill*         0x000000000002808a        0x6 
 .text          0x0000000000028090       0x34 /home/saraj/Desktop/glibc_modified/build/libc_pic.a(getdents64.os)
                0x0000000000028090                __GI___getdents64
                0x0000000000028090                getdents64
                0x0000000000028090                __getdents64
 *(.gnu.warning)

.text.unlikely  0x0000000000000000      0xef2
 .text.unlikely
                0x0000000000000000      0xef2 /home/saraj/Desktop/glibc_modified/build/elf/dl-allobjs.os
                0x0000000000000916                __GI___assert_fail
                0x0000000000000916                __assert_fail
                0x0000000000000983                __GI___assert_perror_fail
                0x0000000000000983                __assert_perror_fail

.text.evex512   0x0000000000000000      0xedb
 .text.evex512  0x0000000000000000      0x3fd /home/saraj/Desktop/glibc_modified/build/elf/dl-allobjs.os
                0x0000000000000000                _dl_runtime_profile_avx512
 *fill*         0x00000000000003fd        0x3 
 .text.evex512  0x0000000000000400      0x880 /home/saraj/Desktop/glibc_modified/build/libc_pic.a(memmove-avx512-unaligned-erms.os)
                0x0000000000000400                __mempcpy_chk_avx512_unaligned
                0x0000000000000410                __mempcpy_avx512_unaligned
                0x0000000000000420                __memcpy_chk_avx512_unaligned
                0x0000000000000420                __memmove_chk_avx512_unaligned
                0x0000000000000430                __memmove_avx512_unaligned
                0x0000000000000430                __memcpy_avx512_unaligned
                0x0000000000000470                __mempcpy_chk_avx512_unaligned_erms
                0x0000000000000480                __mempcpy_avx512_unaligned_erms
                0x0000000000000490                __memcpy_chk_avx512_unaligned_erms
                0x0000000000000490                __memmove_chk_avx512_unaligned_erms
                0x00000000000004c0                __memmove_avx512_unaligned_erms
                0x00000000000004c0                __memcpy_avx512_unaligned_erms
 .text.evex512  0x0000000000000c80      0x25b /home/saraj/Desktop/glibc_modified/build/libc_pic.a(memset-avx512-unaligned-erms.os)
                0x0000000000000c80                __wmemset_chk_avx512_unaligned
                0x0000000000000c90                __wmemset_avx512_unaligned
                0x0000000000000cb0                __memset_chk_avx512_unaligned
                0x0000000000000cc0                __memset_avx512_unaligned
                0x0000000000000d30                __memset_chk_avx512_unaligned_erms
                0x0000000000000d40                __memset_avx512_unaligned_erms

.text.avx       0x0000000000000000     0x2b84
 .text.avx      0x0000000000000000      0x3ef /home/saraj/Desktop/glibc_modified/build/elf/dl-allobjs.os
                0x0000000000000000                _dl_runtime_profile_avx
 *fill*         0x00000000000003ef       0x11 
 .text.avx      0x0000000000000400      0x297 /home/saraj/Desktop/glibc_modified/build/libc_pic.a(memchr-avx2.os)
                0x0000000000000400                __memchr_avx2
 *fill*         0x0000000000000697        0x9 
 .text.avx      0x00000000000006a0      0x3ff /home/saraj/Desktop/glibc_modified/build/libc_pic.a(memcmp-avx2-movbe.os)
                0x00000000000006a0                __memcmp_avx2_movbe
 *fill*         0x0000000000000a9f       0x21 
 .text.avx      0x0000000000000ac0      0x79e /home/saraj/Desktop/glibc_modified/build/libc_pic.a(memmove-avx-unaligned-erms.os)
                0x0000000000000ac0                __mempcpy_chk_avx_unaligned
                0x0000000000000ad0                __mempcpy_avx_unaligned
                0x0000000000000ae0                __memcpy_chk_avx_unaligned
                0x0000000000000ae0                __memmove_chk_avx_unaligned
                0x0000000000000af0                __memcpy_avx_unaligned
                0x0000000000000af0                __memmove_avx_unaligned
                0x0000000000000b30                __mempcpy_chk_avx_unaligned_erms
                0x0000000000000b40                __mempcpy_avx_unaligned_erms
                0x0000000000000b50                __memmove_chk_avx_unaligned_erms
                0x0000000000000b50                __memcpy_chk_avx_unaligned_erms
                0x0000000000000b80                __memcpy_avx_unaligned_erms
                0x0000000000000b80                __memmove_avx_unaligned_erms
 *fill*         0x000000000000125e       0x22 
 .text.avx      0x0000000000001280      0x246 /home/saraj/Desktop/glibc_modified/build/libc_pic.a(memset-avx2-unaligned-erms.os)
                0x0000000000001280                __wmemset_chk_avx2_unaligned
                0x0000000000001290                __wmemset_avx2_unaligned
                0x00000000000012c0                __memset_chk_avx2_unaligned
                0x00000000000012d0                __memset_avx2_unaligned
                0x0000000000001310                __memset_chk_avx2_unaligned_erms
                0x0000000000001340                __memset_avx2_unaligned_erms
 *fill*         0x00000000000014c6        0xa 
 .text.avx      0x00000000000014d0      0x251 /home/saraj/Desktop/glibc_modified/build/libc_pic.a(stpcpy-avx2.os)
                0x00000000000014d0                __stpcpy_avx2
 *fill*         0x0000000000001721       0x1f 
 .text.avx      0x0000000000001740      0x23c /home/saraj/Desktop/glibc_modified/build/libc_pic.a(strchr-avx2.os)
                0x0000000000001740                __strchr_avx2
 *fill*         0x000000000000197c        0x4 
 .text.avx      0x0000000000001980      0x555 /home/saraj/Desktop/glibc_modified/build/libc_pic.a(strcmp-avx2.os)
                0x0000000000001980                __strcmp_avx2
 *fill*         0x0000000000001ed5        0xb 
 .text.avx      0x0000000000001ee0      0x172 /home/saraj/Desktop/glibc_modified/build/libc_pic.a(strlen-avx2.os)
                0x0000000000001ee0                __strlen_avx2
 *fill*         0x0000000000002052        0xe 
 .text.avx      0x0000000000002060      0x64e /home/saraj/Desktop/glibc_modified/build/libc_pic.a(strncmp-avx2.os)
                0x0000000000002060                __strncmp_avx2
 *fill*         0x00000000000026ae       0x12 
 .text.avx      0x00000000000026c0      0x2ce /home/saraj/Desktop/glibc_modified/build/libc_pic.a(strnlen-avx2.os)
                0x00000000000026c0                __strnlen_avx2
 *fill*         0x000000000000298e       0x12 
 .text.avx      0x00000000000029a0      0x1e4 /home/saraj/Desktop/glibc_modified/build/libc_pic.a(strchrnul-avx2.os)
                0x00000000000029a0                __strchrnul_avx2

.text.compat    0x0000000000000000        0x5
 .text.compat   0x0000000000000000        0x5 /home/saraj/Desktop/glibc_modified/build/elf/dl-allobjs.os
                0x0000000000000000                __rtld_version_placeholder_1
                0x0000000000000000                __rtld_version_placeholder@GLIBC_2.34

.text.avx.rtm   0x0000000000000000     0x27a5
 .text.avx.rtm  0x0000000000000000      0x2b8 /home/saraj/Desktop/glibc_modified/build/libc_pic.a(memchr-avx2-rtm.os)
                0x0000000000000000                __memchr_avx2_rtm
 *fill*         0x00000000000002b8        0x8 
 .text.avx.rtm  0x00000000000002c0      0x3ff /home/saraj/Desktop/glibc_modified/build/libc_pic.a(memcmp-avx2-movbe-rtm.os)
                0x00000000000002c0                __memcmp_avx2_movbe_rtm
 *fill*         0x00000000000006bf        0x1 
 .text.avx.rtm  0x00000000000006c0      0x79f /home/saraj/Desktop/glibc_modified/build/libc_pic.a(memmove-avx-unaligned-erms-rtm.os)
                0x00000000000006c0                __mempcpy_chk_avx_unaligned_rtm
                0x00000000000006d0                __mempcpy_avx_unaligned_rtm
                0x00000000000006e0                __memmove_chk_avx_unaligned_rtm
                0x00000000000006e0                __memcpy_chk_avx_unaligned_rtm
                0x00000000000006f0                __memcpy_avx_unaligned_rtm
                0x00000000000006f0                __memmove_avx_unaligned_rtm
                0x0000000000000730                __mempcpy_chk_avx_unaligned_erms_rtm
                0x0000000000000740                __mempcpy_avx_unaligned_erms_rtm
                0x0000000000000750                __memcpy_chk_avx_unaligned_erms_rtm
                0x0000000000000750                __memmove_chk_avx_unaligned_erms_rtm
                0x0000000000000780                __memmove_avx_unaligned_erms_rtm
                0x0000000000000780                __memcpy_avx_unaligned_erms_rtm
 *fill*         0x0000000000000e5f       0x21 
 .text.avx.rtm  0x0000000000000e80      0x247 /home/saraj/Desktop/glibc_modified/build/libc_pic.a(memset-avx2-unaligned-erms-rtm.os)
                0x0000000000000e80                __wmemset_chk_avx2_unaligned_rtm
                0x0000000000000e90                __wmemset_avx2_unaligned_rtm
                0x0000000000000ec0                __memset_chk_avx2_unaligned_rtm
                0x0000000000000ed0                __memset_avx2_unaligned_rtm
                0x0000000000000f10                __memset_chk_avx2_unaligned_erms_rtm
                0x0000000000000f40                __memset_avx2_unaligned_erms_rtm
 *fill*         0x00000000000010c7        0x9 
 .text.avx.rtm  0x00000000000010d0      0x24d /home/saraj/Desktop/glibc_modified/build/libc_pic.a(stpcpy-avx2-rtm.os)
                0x00000000000010d0                __stpcpy_avx2_rtm
 *fill*         0x000000000000131d        0x3 
 .text.avx.rtm  0x0000000000001320      0x22f /home/saraj/Desktop/glibc_modified/build/libc_pic.a(strchr-avx2-rtm.os)
                0x0000000000001320                __strchr_avx2_rtm
 *fill*         0x000000000000154f        0x1 
 .text.avx.rtm  0x0000000000001550      0x555 /home/saraj/Desktop/glibc_modified/build/libc_pic.a(strcmp-avx2-rtm.os)
                0x0000000000001550                __strcmp_avx2_rtm
 *fill*         0x0000000000001aa5       0x1b 
 .text.avx.rtm  0x0000000000001ac0      0x16b /home/saraj/Desktop/glibc_modified/build/libc_pic.a(strlen-avx2-rtm.os)
                0x0000000000001ac0                __strlen_avx2_rtm
 *fill*         0x0000000000001c2b        0x5 
 .text.avx.rtm  0x0000000000001c30      0x67e /home/saraj/Desktop/glibc_modified/build/libc_pic.a(strncmp-avx2-rtm.os)
                0x0000000000001c30                __strncmp_avx2_rtm
 *fill*         0x00000000000022ae       0x12 
 .text.avx.rtm  0x00000000000022c0      0x2fc /home/saraj/Desktop/glibc_modified/build/libc_pic.a(strnlen-avx2-rtm.os)
                0x00000000000022c0                __strnlen_avx2_rtm
 *fill*         0x00000000000025bc        0x4 
 .text.avx.rtm  0x00000000000025c0      0x1e5 /home/saraj/Desktop/glibc_modified/build/libc_pic.a(strchrnul-avx2-rtm.os)
                0x00000000000025c0                __strchrnul_avx2_rtm

.text.evex      0x0000000000000000     0x2697
 .text.evex     0x0000000000000000      0x24f /home/saraj/Desktop/glibc_modified/build/libc_pic.a(memchr-evex.os)
                0x0000000000000000                __memchr_evex
 *fill*         0x000000000000024f       0x31 
 .text.evex     0x0000000000000280      0x2fe /home/saraj/Desktop/glibc_modified/build/libc_pic.a(memcmp-evex-movbe.os)
                0x0000000000000280                __memcmp_evex_movbe
 *fill*         0x000000000000057e        0x2 
 .text.evex     0x0000000000000580      0x87b /home/saraj/Desktop/glibc_modified/build/libc_pic.a(memmove-evex-unaligned-erms.os)
                0x0000000000000580                __mempcpy_chk_evex_unaligned
                0x0000000000000590                __mempcpy_evex_unaligned
                0x00000000000005a0                __memcpy_chk_evex_unaligned
                0x00000000000005a0                __memmove_chk_evex_unaligned
                0x00000000000005b0                __memmove_evex_unaligned
                0x00000000000005b0                __memcpy_evex_unaligned
                0x00000000000005f0                __mempcpy_chk_evex_unaligned_erms
                0x0000000000000600                __mempcpy_evex_unaligned_erms
                0x0000000000000610                __memcpy_chk_evex_unaligned_erms
                0x0000000000000610                __memmove_chk_evex_unaligned_erms
                0x0000000000000640                __memmove_evex_unaligned_erms
                0x0000000000000640                __memcpy_evex_unaligned_erms
 *fill*         0x0000000000000dfb        0x5 
 .text.evex     0x0000000000000e00      0x243 /home/saraj/Desktop/glibc_modified/build/libc_pic.a(memset-evex-unaligned-erms.os)
                0x0000000000000e00                __wmemset_chk_evex_unaligned
                0x0000000000000e10                __wmemset_evex_unaligned
                0x0000000000000e30                __memset_chk_evex_unaligned
                0x0000000000000e40                __memset_evex_unaligned
                0x0000000000000eb0                __memset_chk_evex_unaligned_erms
                0x0000000000000ec0                __memset_evex_unaligned_erms
 *fill*         0x0000000000001043        0xd 
 .text.evex     0x0000000000001050      0x2e0 /home/saraj/Desktop/glibc_modified/build/libc_pic.a(stpcpy-evex.os)
                0x0000000000001050                __stpcpy_evex
 *fill*         0x0000000000001330       0x10 
 .text.evex     0x0000000000001340      0x1ff /home/saraj/Desktop/glibc_modified/build/libc_pic.a(strchr-evex.os)
                0x0000000000001340                __strchr_evex
 *fill*         0x000000000000153f        0x1 
 .text.evex     0x0000000000001540      0x540 /home/saraj/Desktop/glibc_modified/build/libc_pic.a(strcmp-evex.os)
                0x0000000000001540                __strcmp_evex
 .text.evex     0x0000000000001a80      0x15d /home/saraj/Desktop/glibc_modified/build/libc_pic.a(strlen-evex.os)
                0x0000000000001a80                __strlen_evex
 *fill*         0x0000000000001bdd       0x23 
 .text.evex     0x0000000000001c00      0x649 /home/saraj/Desktop/glibc_modified/build/libc_pic.a(strncmp-evex.os)
                0x0000000000001c00                __strncmp_evex
 *fill*         0x0000000000002249       0x37 
 .text.evex     0x0000000000002280      0x236 /home/saraj/Desktop/glibc_modified/build/libc_pic.a(strnlen-evex.os)
                0x0000000000002280                __strnlen_evex
 *fill*         0x00000000000024b6        0xa 
 .text.evex     0x00000000000024c0      0x1d7 /home/saraj/Desktop/glibc_modified/build/libc_pic.a(strchrnul-evex.os)
                0x00000000000024c0                __strchrnul_evex

.text.evex.rtm  0x0000000000000000      0x24f
 .text.evex.rtm
                0x0000000000000000      0x24f /home/saraj/Desktop/glibc_modified/build/libc_pic.a(memchr-evex-rtm.os)
                0x0000000000000000                __memchr_evex_rtm

.text.avx512    0x0000000000000000      0x9f4
 .text.avx512   0x0000000000000000      0x76f /home/saraj/Desktop/glibc_modified/build/libc_pic.a(memmove-avx512-no-vzeroupper.os)
                0x0000000000000000                __mempcpy_chk_avx512_no_vzeroupper
                0x0000000000000010                __mempcpy_avx512_no_vzeroupper
                0x0000000000000020                __memcpy_chk_avx512_no_vzeroupper
                0x0000000000000020                __memmove_chk_avx512_no_vzeroupper
                0x0000000000000030                __memcpy_avx512_no_vzeroupper
                0x0000000000000030                __memmove_avx512_no_vzeroupper
 *fill*         0x000000000000076f        0x1 
 .text.avx512   0x0000000000000770      0x284 /home/saraj/Desktop/glibc_modified/build/libc_pic.a(memset-avx512-no-vzeroupper.os)
                0x0000000000000770                __memset_chk_avx512_no_vzeroupper
                0x0000000000000780                __memset_avx512_no_vzeroupper

.text.ssse3     0x0000000000000000      0xf7d
 .text.ssse3    0x0000000000000000      0xf7d /home/saraj/Desktop/glibc_modified/build/libc_pic.a(memmove-ssse3.os)
                0x0000000000000000                __mempcpy_chk_ssse3
                0x0000000000000010                __mempcpy_ssse3
                0x0000000000000020                __memcpy_chk_ssse3
                0x0000000000000020                __memmove_chk_ssse3
                0x0000000000000040                __memcpy_ssse3
                0x0000000000000040                __memmove_ssse3

.text.atom      0x0000000000000000      0x315
 .text.atom     0x0000000000000000      0x315 /home/saraj/Desktop/glibc_modified/build/libc_pic.a(strchr-sse2-no-bsf.os)
                0x0000000000000000                __strchr_sse2_no_bsf

.text.sse4.2    0x0000000000000000     0x1ea9
 .text.sse4.2   0x0000000000000000      0xda9 /home/saraj/Desktop/glibc_modified/build/libc_pic.a(strcmp-sse4_2.os)
                0x0000000000000000                __strcmp_sse42
 *fill*         0x0000000000000da9        0x7 
 .text.sse4.2   0x0000000000000db0      0x11b /home/saraj/Desktop/glibc_modified/build/libc_pic.a(strcspn-sse4.os)
                0x0000000000000db0                __strcspn_sse42
 *fill*         0x0000000000000ecb        0x5 
 .text.sse4.2   0x0000000000000ed0      0xfd9 /home/saraj/Desktop/glibc_modified/build/libc_pic.a(strncmp-sse4_2.os)
                0x0000000000000ed0                __strncmp_sse42

.fini
 *(SORT_NONE(.fini))

.rodata         0x0000000000000000     0x1a15
 *(.rodata)
 .rodata        0x0000000000000000     0x1332 /home/saraj/Desktop/glibc_modified/build/elf/dl-allobjs.os
 .rodata        0x0000000000001332       0x80 /home/saraj/Desktop/glibc_modified/build/libc_pic.a(stpcpy-sse2-unaligned.os)
 *fill*         0x00000000000013b2        0x6 
 .rodata        0x00000000000013b8       0x40 /home/saraj/Desktop/glibc_modified/build/libc_pic.a(strcmp-sse2.os)
 .rodata        0x00000000000013f8       0x40 /home/saraj/Desktop/glibc_modified/build/libc_pic.a(strncmp-sse2.os)
 *fill*         0x0000000000001438        0x8 
 .rodata        0x0000000000001440       0x1f /home/saraj/Desktop/glibc_modified/build/libc_pic.a(varshift.os)
                0x0000000000001440                ___m128i_shift_right
 *fill*         0x000000000000145f        0x1 
 .rodata        0x0000000000001460       0x34 /home/saraj/Desktop/glibc_modified/build/libc_pic.a(cacheinfo.os)
 *fill*         0x0000000000001494        0xc 
 .rodata        0x00000000000014a0      0x575 /home/saraj/Desktop/glibc_modified/build/libc_pic.a(errname.os)

.rodata.str1.1  0x0000000000000000     0x1919
 .rodata.str1.1
                0x0000000000000000     0x18e4 /home/saraj/Desktop/glibc_modified/build/elf/dl-allobjs.os
 .rodata.str1.1
                0x00000000000018e4       0x14 /home/saraj/Desktop/glibc_modified/build/libc_pic.a(check_fds.os)
 .rodata.str1.1
                0x00000000000018f8       0x21 /home/saraj/Desktop/glibc_modified/build/libc_pic.a(fd_to_filename.os)

.rodata.str1.16
                0x0000000000000000      0x591
 .rodata.str1.16
                0x0000000000000000      0x575 /home/saraj/Desktop/glibc_modified/build/elf/dl-allobjs.os
                0x00000000000003b0                _dl_hwcaps_subdirs
                0x0000000000000410                __GI__itoa_lower_digits
                0x0000000000000410                _itoa_lower_digits
 *fill*         0x0000000000000575        0xb 
 .rodata.str1.16
                0x0000000000000580       0x11 /home/saraj/Desktop/glibc_modified/build/libc_pic.a(fd_to_filename.os)

.rodata.str1.8  0x0000000000000000     0x31bf
 .rodata.str1.8
                0x0000000000000000     0x3181 /home/saraj/Desktop/glibc_modified/build/elf/dl-allobjs.os
 *fill*         0x0000000000003181        0x7 
 .rodata.str1.8
                0x0000000000003188       0x37 /home/saraj/Desktop/glibc_modified/build/libc_pic.a(lowlevellock.os)

.rodata.str1.32
                0x0000000000000000       0x85
 .rodata.str1.32
                0x0000000000000000       0x5b /home/saraj/Desktop/glibc_modified/build/elf/dl-allobjs.os
 *fill*         0x000000000000005b        0x5 
 .rodata.str1.32
                0x0000000000000060       0x25 /home/saraj/Desktop/glibc_modified/build/libc_pic.a(itoa-udigits.os)
                0x0000000000000060                __GI__itoa_upper_digits
                0x0000000000000060                _itoa_upper_digits

.rodata.cst4    0x0000000000000000        0x8
 .rodata.cst4   0x0000000000000000        0x8 /home/saraj/Desktop/glibc_modified/build/elf/dl-allobjs.os
                0x0000000000000004                __rseq_flags

.rodata.cst16   0x0000000000000000       0x50
 .rodata.cst16  0x0000000000000000       0x50 /home/saraj/Desktop/glibc_modified/build/elf/dl-allobjs.os

.rodata.cst2    0x0000000000000000        0x4
 .rodata.cst2   0x0000000000000000        0x4 /home/saraj/Desktop/glibc_modified/build/elf/dl-allobjs.os

.rodata.cst8    0x0000000000000000        0x8
 .rodata.cst8   0x0000000000000000        0x8 /home/saraj/Desktop/glibc_modified/build/elf/dl-allobjs.os

.rodata.sse4.2  0x0000000000000000       0x80
 .rodata.sse4.2
                0x0000000000000000       0x40 /home/saraj/Desktop/glibc_modified/build/libc_pic.a(strcmp-sse4_2.os)
 .rodata.sse4.2
                0x0000000000000040       0x40 /home/saraj/Desktop/glibc_modified/build/libc_pic.a(strncmp-sse4_2.os)

.rodata1
 *(.rodata1)

.eh_frame_hdr
 *(.eh_frame_hdr)

.eh_frame       0x0000000000000000     0x5ca4
 *(.eh_frame)
 .eh_frame      0x0000000000000000     0x3e58 /home/saraj/Desktop/glibc_modified/build/elf/dl-allobjs.os
                                       0x3ed8 (size before relaxing)
 .eh_frame      0x0000000000003e58       0x68 /home/saraj/Desktop/glibc_modified/build/libc_pic.a(check_fds.os)
 .eh_frame      0x0000000000003ec0       0x30 /home/saraj/Desktop/glibc_modified/build/libc_pic.a(setjmp.os)
 .eh_frame      0x0000000000003ef0       0x48 /home/saraj/Desktop/glibc_modified/build/libc_pic.a(__longjmp.os)
 .eh_frame      0x0000000000003f38       0x78 /home/saraj/Desktop/glibc_modified/build/libc_pic.a(getenv.os)
 .eh_frame      0x0000000000003fb0       0x50 /home/saraj/Desktop/glibc_modified/build/libc_pic.a(_fitoa_word.os)
 .eh_frame      0x0000000000004000       0x70 /home/saraj/Desktop/glibc_modified/build/libc_pic.a(lowlevellock.os)
 .eh_frame      0x0000000000004070       0x48 /home/saraj/Desktop/glibc_modified/build/libc_pic.a(scratch_buffer_set_array_size.os)
 .eh_frame      0x00000000000040b8       0x30 /home/saraj/Desktop/glibc_modified/build/libc_pic.a(memchr.os)
 .eh_frame      0x00000000000040e8       0x30 /home/saraj/Desktop/glibc_modified/build/libc_pic.a(memcmp.os)
 .eh_frame      0x0000000000004118       0x30 /home/saraj/Desktop/glibc_modified/build/libc_pic.a(memcpy.os)
 .eh_frame      0x0000000000004148       0x30 /home/saraj/Desktop/glibc_modified/build/libc_pic.a(memmove.os)
 .eh_frame      0x0000000000004178       0x30 /home/saraj/Desktop/glibc_modified/build/libc_pic.a(mempcpy.os)
 .eh_frame      0x00000000000041a8       0x30 /home/saraj/Desktop/glibc_modified/build/libc_pic.a(memset.os)
 .eh_frame      0x00000000000041d8       0x30 /home/saraj/Desktop/glibc_modified/build/libc_pic.a(stpcpy.os)
 .eh_frame      0x0000000000004208       0x30 /home/saraj/Desktop/glibc_modified/build/libc_pic.a(strchr.os)
 .eh_frame      0x0000000000004238       0x30 /home/saraj/Desktop/glibc_modified/build/libc_pic.a(strcmp.os)
 .eh_frame      0x0000000000004268       0x30 /home/saraj/Desktop/glibc_modified/build/libc_pic.a(strcspn.os)
 .eh_frame      0x0000000000004298       0x50 /home/saraj/Desktop/glibc_modified/build/libc_pic.a(strdup.os)
 .eh_frame      0x00000000000042e8       0x30 /home/saraj/Desktop/glibc_modified/build/libc_pic.a(strerrorname_np.os)
 .eh_frame      0x0000000000004318       0x30 /home/saraj/Desktop/glibc_modified/build/libc_pic.a(strlen.os)
 .eh_frame      0x0000000000004348       0x30 /home/saraj/Desktop/glibc_modified/build/libc_pic.a(strncmp.os)
 .eh_frame      0x0000000000004378       0x30 /home/saraj/Desktop/glibc_modified/build/libc_pic.a(strnlen.os)
 .eh_frame      0x00000000000043a8       0x30 /home/saraj/Desktop/glibc_modified/build/libc_pic.a(memchr-avx2.os)
 .eh_frame      0x00000000000043d8       0x30 /home/saraj/Desktop/glibc_modified/build/libc_pic.a(memchr-avx2-rtm.os)
 .eh_frame      0x0000000000004408       0x30 /home/saraj/Desktop/glibc_modified/build/libc_pic.a(memchr-evex.os)
 .eh_frame      0x0000000000004438       0x30 /home/saraj/Desktop/glibc_modified/build/libc_pic.a(memchr-evex-rtm.os)
 .eh_frame      0x0000000000004468       0x30 /home/saraj/Desktop/glibc_modified/build/libc_pic.a(memchr-sse2.os)
 .eh_frame      0x0000000000004498       0x30 /home/saraj/Desktop/glibc_modified/build/libc_pic.a(memcmp-avx2-movbe.os)
 .eh_frame      0x00000000000044c8       0x30 /home/saraj/Desktop/glibc_modified/build/libc_pic.a(memcmp-avx2-movbe-rtm.os)
 .eh_frame      0x00000000000044f8       0x30 /home/saraj/Desktop/glibc_modified/build/libc_pic.a(memcmp-evex-movbe.os)
 .eh_frame      0x0000000000004528       0x30 /home/saraj/Desktop/glibc_modified/build/libc_pic.a(memcmp-sse2.os)
 .eh_frame      0x0000000000004558       0xb8 /home/saraj/Desktop/glibc_modified/build/libc_pic.a(memmove-avx-unaligned-erms.os)
 .eh_frame      0x0000000000004610       0xb8 /home/saraj/Desktop/glibc_modified/build/libc_pic.a(memmove-avx-unaligned-erms-rtm.os)
 .eh_frame      0x00000000000046c8       0x68 /home/saraj/Desktop/glibc_modified/build/libc_pic.a(memmove-avx512-no-vzeroupper.os)
 .eh_frame      0x0000000000004730       0xb8 /home/saraj/Desktop/glibc_modified/build/libc_pic.a(memmove-avx512-unaligned-erms.os)
 .eh_frame      0x00000000000047e8       0x68 /home/saraj/Desktop/glibc_modified/build/libc_pic.a(memmove-erms.os)
 .eh_frame      0x0000000000004850       0xb8 /home/saraj/Desktop/glibc_modified/build/libc_pic.a(memmove-evex-unaligned-erms.os)
 .eh_frame      0x0000000000004908       0xb8 /home/saraj/Desktop/glibc_modified/build/libc_pic.a(memmove-sse2-unaligned-erms.os)
 .eh_frame      0x00000000000049c0       0x68 /home/saraj/Desktop/glibc_modified/build/libc_pic.a(memmove-ssse3.os)
 .eh_frame      0x0000000000004a28       0x90 /home/saraj/Desktop/glibc_modified/build/libc_pic.a(memset-avx2-unaligned-erms.os)
 .eh_frame      0x0000000000004ab8       0x90 /home/saraj/Desktop/glibc_modified/build/libc_pic.a(memset-avx2-unaligned-erms-rtm.os)
 .eh_frame      0x0000000000004b48       0x40 /home/saraj/Desktop/glibc_modified/build/libc_pic.a(memset-avx512-no-vzeroupper.os)
 .eh_frame      0x0000000000004b88       0x90 /home/saraj/Desktop/glibc_modified/build/libc_pic.a(memset-avx512-unaligned-erms.os)
 .eh_frame      0x0000000000004c18       0x40 /home/saraj/Desktop/glibc_modified/build/libc_pic.a(memset-erms.os)
 .eh_frame      0x0000000000004c58       0x90 /home/saraj/Desktop/glibc_modified/build/libc_pic.a(memset-evex-unaligned-erms.os)
 .eh_frame      0x0000000000004ce8       0x90 /home/saraj/Desktop/glibc_modified/build/libc_pic.a(memset-sse2-unaligned-erms.os)
 .eh_frame      0x0000000000004d78       0x30 /home/saraj/Desktop/glibc_modified/build/libc_pic.a(stpcpy-avx2.os)
 .eh_frame      0x0000000000004da8       0x30 /home/saraj/Desktop/glibc_modified/build/libc_pic.a(stpcpy-avx2-rtm.os)
 .eh_frame      0x0000000000004dd8       0x30 /home/saraj/Desktop/glibc_modified/build/libc_pic.a(stpcpy-evex.os)
 .eh_frame      0x0000000000004e08       0x30 /home/saraj/Desktop/glibc_modified/build/libc_pic.a(stpcpy-sse2.os)
 .eh_frame      0x0000000000004e38       0x30 /home/saraj/Desktop/glibc_modified/build/libc_pic.a(stpcpy-sse2-unaligned.os)
 .eh_frame      0x0000000000004e68       0x30 /home/saraj/Desktop/glibc_modified/build/libc_pic.a(strchr-avx2.os)
 .eh_frame      0x0000000000004e98       0x30 /home/saraj/Desktop/glibc_modified/build/libc_pic.a(strchr-avx2-rtm.os)
 .eh_frame      0x0000000000004ec8       0x30 /home/saraj/Desktop/glibc_modified/build/libc_pic.a(strchr-evex.os)
 .eh_frame      0x0000000000004ef8       0x30 /home/saraj/Desktop/glibc_modified/build/libc_pic.a(strchr-sse2.os)
 .eh_frame      0x0000000000004f28       0x30 /home/saraj/Desktop/glibc_modified/build/libc_pic.a(strchr-sse2-no-bsf.os)
 .eh_frame      0x0000000000004f58       0x30 /home/saraj/Desktop/glibc_modified/build/libc_pic.a(strcmp-avx2.os)
 .eh_frame      0x0000000000004f88       0x30 /home/saraj/Desktop/glibc_modified/build/libc_pic.a(strcmp-avx2-rtm.os)
 .eh_frame      0x0000000000004fb8       0x30 /home/saraj/Desktop/glibc_modified/build/libc_pic.a(strcmp-evex.os)
 .eh_frame      0x0000000000004fe8       0x30 /home/saraj/Desktop/glibc_modified/build/libc_pic.a(strcmp-sse2.os)
 .eh_frame      0x0000000000005018       0x30 /home/saraj/Desktop/glibc_modified/build/libc_pic.a(strcmp-sse2-unaligned.os)
 .eh_frame      0x0000000000005048       0x30 /home/saraj/Desktop/glibc_modified/build/libc_pic.a(strcmp-sse4_2.os)
 .eh_frame      0x0000000000005078       0x30 /home/saraj/Desktop/glibc_modified/build/libc_pic.a(strcspn-sse4.os)
 .eh_frame      0x00000000000050a8       0x30 /home/saraj/Desktop/glibc_modified/build/libc_pic.a(strlen-avx2.os)
 .eh_frame      0x00000000000050d8       0x30 /home/saraj/Desktop/glibc_modified/build/libc_pic.a(strlen-avx2-rtm.os)
 .eh_frame      0x0000000000005108       0x30 /home/saraj/Desktop/glibc_modified/build/libc_pic.a(strlen-evex.os)
 .eh_frame      0x0000000000005138       0x30 /home/saraj/Desktop/glibc_modified/build/libc_pic.a(strlen-sse2.os)
 .eh_frame      0x0000000000005168       0x30 /home/saraj/Desktop/glibc_modified/build/libc_pic.a(strncmp-avx2.os)
 .eh_frame      0x0000000000005198       0x30 /home/saraj/Desktop/glibc_modified/build/libc_pic.a(strncmp-avx2-rtm.os)
 .eh_frame      0x00000000000051c8       0x30 /home/saraj/Desktop/glibc_modified/build/libc_pic.a(strncmp-evex.os)
 .eh_frame      0x00000000000051f8       0x30 /home/saraj/Desktop/glibc_modified/build/libc_pic.a(strncmp-sse2.os)
 .eh_frame      0x0000000000005228       0x30 /home/saraj/Desktop/glibc_modified/build/libc_pic.a(strncmp-sse4_2.os)
 .eh_frame      0x0000000000005258       0x30 /home/saraj/Desktop/glibc_modified/build/libc_pic.a(strnlen-avx2.os)
 .eh_frame      0x0000000000005288       0x30 /home/saraj/Desktop/glibc_modified/build/libc_pic.a(strnlen-avx2-rtm.os)
 .eh_frame      0x00000000000052b8       0x30 /home/saraj/Desktop/glibc_modified/build/libc_pic.a(strnlen-evex.os)
 .eh_frame      0x00000000000052e8       0x30 /home/saraj/Desktop/glibc_modified/build/libc_pic.a(strnlen-sse2.os)
 .eh_frame      0x0000000000005318       0x50 /home/saraj/Desktop/glibc_modified/build/libc_pic.a(strcspn-generic.os)
 .eh_frame      0x0000000000005368       0x40 /home/saraj/Desktop/glibc_modified/build/libc_pic.a(cacheinfo.os)
 .eh_frame      0x00000000000053a8       0x38 /home/saraj/Desktop/glibc_modified/build/libc_pic.a(closedir.os)
 .eh_frame      0x00000000000053e0       0x48 /home/saraj/Desktop/glibc_modified/build/libc_pic.a(fdopendir.os)
 .eh_frame      0x0000000000005428       0x68 /home/saraj/Desktop/glibc_modified/build/libc_pic.a(readdir64.os)
 .eh_frame      0x0000000000005490       0x50 /home/saraj/Desktop/glibc_modified/build/libc_pic.a(rewinddir.os)
 .eh_frame      0x00000000000054e0       0x30 /home/saraj/Desktop/glibc_modified/build/libc_pic.a(_exit.os)
 .eh_frame      0x0000000000005510       0x30 /home/saraj/Desktop/glibc_modified/build/libc_pic.a(getpid.os)
 .eh_frame      0x0000000000005540       0x30 /home/saraj/Desktop/glibc_modified/build/libc_pic.a(uname.os)
 .eh_frame      0x0000000000005570       0x30 /home/saraj/Desktop/glibc_modified/build/libc_pic.a(access.os)
 .eh_frame      0x00000000000055a0       0x30 /home/saraj/Desktop/glibc_modified/build/libc_pic.a(fstat64.os)
 .eh_frame      0x00000000000055d0       0x30 /home/saraj/Desktop/glibc_modified/build/libc_pic.a(fstatat64.os)
 .eh_frame      0x0000000000005600       0x30 /home/saraj/Desktop/glibc_modified/build/libc_pic.a(lseek64.os)
 .eh_frame      0x0000000000005630       0x30 /home/saraj/Desktop/glibc_modified/build/libc_pic.a(lstat64.os)
 .eh_frame      0x0000000000005660       0x38 /home/saraj/Desktop/glibc_modified/build/libc_pic.a(openat64.os)
 .eh_frame      0x0000000000005698       0x30 /home/saraj/Desktop/glibc_modified/build/libc_pic.a(stat64.os)
 .eh_frame      0x00000000000056c8       0x30 /home/saraj/Desktop/glibc_modified/build/libc_pic.a(close_nocancel.os)
 .eh_frame      0x00000000000056f8       0x30 /home/saraj/Desktop/glibc_modified/build/libc_pic.a(close_nocancel_nostatus.os)
 .eh_frame      0x0000000000005728       0x40 /home/saraj/Desktop/glibc_modified/build/libc_pic.a(fcntl_nocancel.os)
 .eh_frame      0x0000000000005768       0x30 /home/saraj/Desktop/glibc_modified/build/libc_pic.a(open64_nocancel.os)
 .eh_frame      0x0000000000005798       0x30 /home/saraj/Desktop/glibc_modified/build/libc_pic.a(pread64_nocancel.os)
 .eh_frame      0x00000000000057c8       0x30 /home/saraj/Desktop/glibc_modified/build/libc_pic.a(read_nocancel.os)
 .eh_frame      0x00000000000057f8       0x30 /home/saraj/Desktop/glibc_modified/build/libc_pic.a(write_nocancel.os)
 .eh_frame      0x0000000000005828       0x38 /home/saraj/Desktop/glibc_modified/build/libc_pic.a(fd_to_filename.os)
 .eh_frame      0x0000000000005860       0x48 /home/saraj/Desktop/glibc_modified/build/libc_pic.a(mmap64.os)
 .eh_frame      0x00000000000058a8       0x30 /home/saraj/Desktop/glibc_modified/build/libc_pic.a(mprotect.os)
 .eh_frame      0x00000000000058d8       0x30 /home/saraj/Desktop/glibc_modified/build/libc_pic.a(munmap.os)
 .eh_frame      0x0000000000005908       0x70 /home/saraj/Desktop/glibc_modified/build/libc_pic.a(setvmaname.os)
 .eh_frame      0x0000000000005978       0x30 /home/saraj/Desktop/glibc_modified/build/libc_pic.a(prof-freq.os)
 .eh_frame      0x00000000000059a8       0x88 /home/saraj/Desktop/glibc_modified/build/libc_pic.a(profil.os)
 .eh_frame      0x0000000000005a30       0x30 /home/saraj/Desktop/glibc_modified/build/libc_pic.a(dl-addr-obj.os)
 .eh_frame      0x0000000000005a60       0xc8 /home/saraj/Desktop/glibc_modified/build/libc_pic.a(libc_sigaction.os)
                                         0xd0 (size before relaxing)
 .eh_frame      0x0000000000005b28       0x30 /home/saraj/Desktop/glibc_modified/build/libc_pic.a(errname.os)
 .eh_frame      0x0000000000005b58       0x30 /home/saraj/Desktop/glibc_modified/build/libc_pic.a(strchrnul.os)
 .eh_frame      0x0000000000005b88       0x30 /home/saraj/Desktop/glibc_modified/build/libc_pic.a(strchrnul-avx2.os)
 .eh_frame      0x0000000000005bb8       0x30 /home/saraj/Desktop/glibc_modified/build/libc_pic.a(strchrnul-avx2-rtm.os)
 .eh_frame      0x0000000000005be8       0x30 /home/saraj/Desktop/glibc_modified/build/libc_pic.a(strchrnul-evex.os)
 .eh_frame      0x0000000000005c18       0x30 /home/saraj/Desktop/glibc_modified/build/libc_pic.a(strchrnul-sse2.os)
 .eh_frame      0x0000000000005c48       0x30 /home/saraj/Desktop/glibc_modified/build/libc_pic.a(setitimer.os)
 .eh_frame      0x0000000000005c78       0x2c /home/saraj/Desktop/glibc_modified/build/libc_pic.a(getdents64.os)
                                         0x30 (size before relaxing)

.sframe
 *(.sframe)

.gcc_except_table
 *(.gcc_except_table)

.gnu_extab
 *(.gnu_extab*)

.exception_ranges
 *(.exception_ranges)

.eh_frame
 *(.eh_frame)

.sframe
 *(.sframe)

.gnu_extab
 *(.gnu_extab)

.gcc_except_table
 *(.gcc_except_table)

.exception_ranges
 *(.exception_ranges)

.tdata
 *(.tdata)

.tbss           0x0000000000000000        0x4
 *(.tbss)
 .tbss          0x0000000000000000        0x4 /home/saraj/Desktop/glibc_modified/build/libc_pic.a(errno.os)
                0x0000000000000000                errno
                0x0000000000000000                __libc_errno

.jcr
 *(.jcr)

.dynamic
 *(.dynamic)

.got
 *(.got)

.got.plt
 *(.got.plt)

.data           0x0000000000000000      0x87c
 *(.data)
 .data          0x0000000000000000        0x0 /home/saraj/Desktop/glibc_modified/build/elf/librtld.mapT.o
 .data          0x0000000000000000      0x848 /home/saraj/Desktop/glibc_modified/build/elf/dl-allobjs.os
                0x0000000000000000                _rtld_global
                0x0000000000000000                _rtld_local
 .data          0x0000000000000848        0x0 /home/saraj/Desktop/glibc_modified/build/libc_pic.a(check_fds.os)
 .data          0x0000000000000848        0x0 /home/saraj/Desktop/glibc_modified/build/libc_pic.a(errno.os)
 .data          0x0000000000000848        0x0 /home/saraj/Desktop/glibc_modified/build/libc_pic.a(setjmp.os)
 .data          0x0000000000000848        0x0 /home/saraj/Desktop/glibc_modified/build/libc_pic.a(__longjmp.os)
 .data          0x0000000000000848        0x0 /home/saraj/Desktop/glibc_modified/build/libc_pic.a(getenv.os)
 .data          0x0000000000000848        0x0 /home/saraj/Desktop/glibc_modified/build/libc_pic.a(_fitoa_word.os)
 .data          0x0000000000000848        0x0 /home/saraj/Desktop/glibc_modified/build/libc_pic.a(itoa-udigits.os)
 .data          0x0000000000000848        0x0 /home/saraj/Desktop/glibc_modified/build/libc_pic.a(lowlevellock.os)
 .data          0x0000000000000848        0x0 /home/saraj/Desktop/glibc_modified/build/libc_pic.a(scratch_buffer_set_array_size.os)
 .data          0x0000000000000848        0x0 /home/saraj/Desktop/glibc_modified/build/libc_pic.a(memchr.os)
 .data          0x0000000000000848        0x0 /home/saraj/Desktop/glibc_modified/build/libc_pic.a(memcmp.os)
 .data          0x0000000000000848        0x0 /home/saraj/Desktop/glibc_modified/build/libc_pic.a(memcpy.os)
 .data          0x0000000000000848        0x0 /home/saraj/Desktop/glibc_modified/build/libc_pic.a(memmove.os)
 .data          0x0000000000000848        0x0 /home/saraj/Desktop/glibc_modified/build/libc_pic.a(mempcpy.os)
 .data          0x0000000000000848        0x0 /home/saraj/Desktop/glibc_modified/build/libc_pic.a(memset.os)
 .data          0x0000000000000848        0x0 /home/saraj/Desktop/glibc_modified/build/libc_pic.a(stpcpy.os)
 .data          0x0000000000000848        0x0 /home/saraj/Desktop/glibc_modified/build/libc_pic.a(strchr.os)
 .data          0x0000000000000848        0x0 /home/saraj/Desktop/glibc_modified/build/libc_pic.a(strcmp.os)
 .data          0x0000000000000848        0x0 /home/saraj/Desktop/glibc_modified/build/libc_pic.a(strcspn.os)
 .data          0x0000000000000848        0x0 /home/saraj/Desktop/glibc_modified/build/libc_pic.a(strdup.os)
 .data          0x0000000000000848        0x0 /home/saraj/Desktop/glibc_modified/build/libc_pic.a(strerrorname_np.os)
 .data          0x0000000000000848        0x0 /home/saraj/Desktop/glibc_modified/build/libc_pic.a(strlen.os)
 .data          0x0000000000000848        0x0 /home/saraj/Desktop/glibc_modified/build/libc_pic.a(strncmp.os)
 .data          0x0000000000000848        0x0 /home/saraj/Desktop/glibc_modified/build/libc_pic.a(strnlen.os)
 .data          0x0000000000000848        0x0 /home/saraj/Desktop/glibc_modified/build/libc_pic.a(memchr-avx2.os)
 .data          0x0000000000000848        0x0 /home/saraj/Desktop/glibc_modified/build/libc_pic.a(memchr-avx2-rtm.os)
 .data          0x0000000000000848        0x0 /home/saraj/Desktop/glibc_modified/build/libc_pic.a(memchr-evex.os)
 .data          0x0000000000000848        0x0 /home/saraj/Desktop/glibc_modified/build/libc_pic.a(memchr-evex-rtm.os)
 .data          0x0000000000000848        0x0 /home/saraj/Desktop/glibc_modified/build/libc_pic.a(memchr-sse2.os)
 .data          0x0000000000000848        0x0 /home/saraj/Desktop/glibc_modified/build/libc_pic.a(memcmp-avx2-movbe.os)
 .data          0x0000000000000848        0x0 /home/saraj/Desktop/glibc_modified/build/libc_pic.a(memcmp-avx2-movbe-rtm.os)
 .data          0x0000000000000848        0x0 /home/saraj/Desktop/glibc_modified/build/libc_pic.a(memcmp-evex-movbe.os)
 .data          0x0000000000000848        0x0 /home/saraj/Desktop/glibc_modified/build/libc_pic.a(memcmp-sse2.os)
 .data          0x0000000000000848        0x0 /home/saraj/Desktop/glibc_modified/build/libc_pic.a(memmove-avx-unaligned-erms.os)
 .data          0x0000000000000848        0x0 /home/saraj/Desktop/glibc_modified/build/libc_pic.a(memmove-avx-unaligned-erms-rtm.os)
 .data          0x0000000000000848        0x0 /home/saraj/Desktop/glibc_modified/build/libc_pic.a(memmove-avx512-no-vzeroupper.os)
 .data          0x0000000000000848        0x0 /home/saraj/Desktop/glibc_modified/build/libc_pic.a(memmove-avx512-unaligned-erms.os)
 .data          0x0000000000000848        0x0 /home/saraj/Desktop/glibc_modified/build/libc_pic.a(memmove-erms.os)
 .data          0x0000000000000848        0x0 /home/saraj/Desktop/glibc_modified/build/libc_pic.a(memmove-evex-unaligned-erms.os)
 .data          0x0000000000000848        0x0 /home/saraj/Desktop/glibc_modified/build/libc_pic.a(memmove-sse2-unaligned-erms.os)
 .data          0x0000000000000848        0x0 /home/saraj/Desktop/glibc_modified/build/libc_pic.a(memmove-ssse3.os)
 .data          0x0000000000000848        0x0 /home/saraj/Desktop/glibc_modified/build/libc_pic.a(memset-avx2-unaligned-erms.os)
 .data          0x0000000000000848        0x0 /home/saraj/Desktop/glibc_modified/build/libc_pic.a(memset-avx2-unaligned-erms-rtm.os)
 .data          0x0000000000000848        0x0 /home/saraj/Desktop/glibc_modified/build/libc_pic.a(memset-avx512-no-vzeroupper.os)
 .data          0x0000000000000848        0x0 /home/saraj/Desktop/glibc_modified/build/libc_pic.a(memset-avx512-unaligned-erms.os)
 .data          0x0000000000000848        0x0 /home/saraj/Desktop/glibc_modified/build/libc_pic.a(memset-erms.os)
 .data          0x0000000000000848        0x0 /home/saraj/Desktop/glibc_modified/build/libc_pic.a(memset-evex-unaligned-erms.os)
 .data          0x0000000000000848        0x0 /home/saraj/Desktop/glibc_modified/build/libc_pic.a(memset-sse2-unaligned-erms.os)
 .data          0x0000000000000848        0x0 /home/saraj/Desktop/glibc_modified/build/libc_pic.a(stpcpy-avx2.os)
 .data          0x0000000000000848        0x0 /home/saraj/Desktop/glibc_modified/build/libc_pic.a(stpcpy-avx2-rtm.os)
 .data          0x0000000000000848        0x0 /home/saraj/Desktop/glibc_modified/build/libc_pic.a(stpcpy-evex.os)
 .data          0x0000000000000848        0x0 /home/saraj/Desktop/glibc_modified/build/libc_pic.a(stpcpy-sse2.os)
 .data          0x0000000000000848        0x0 /home/saraj/Desktop/glibc_modified/build/libc_pic.a(stpcpy-sse2-unaligned.os)
 .data          0x0000000000000848        0x0 /home/saraj/Desktop/glibc_modified/build/libc_pic.a(strchr-avx2.os)
 .data          0x0000000000000848        0x0 /home/saraj/Desktop/glibc_modified/build/libc_pic.a(strchr-avx2-rtm.os)
 .data          0x0000000000000848        0x0 /home/saraj/Desktop/glibc_modified/build/libc_pic.a(strchr-evex.os)
 .data          0x0000000000000848        0x0 /home/saraj/Desktop/glibc_modified/build/libc_pic.a(strchr-sse2.os)
 .data          0x0000000000000848        0x0 /home/saraj/Desktop/glibc_modified/build/libc_pic.a(strchr-sse2-no-bsf.os)
 .data          0x0000000000000848        0x0 /home/saraj/Desktop/glibc_modified/build/libc_pic.a(strcmp-avx2.os)
 .data          0x0000000000000848        0x0 /home/saraj/Desktop/glibc_modified/build/libc_pic.a(strcmp-avx2-rtm.os)
 .data          0x0000000000000848        0x0 /home/saraj/Desktop/glibc_modified/build/libc_pic.a(strcmp-evex.os)
 .data          0x0000000000000848        0x0 /home/saraj/Desktop/glibc_modified/build/libc_pic.a(strcmp-sse2.os)
 .data          0x0000000000000848        0x0 /home/saraj/Desktop/glibc_modified/build/libc_pic.a(strcmp-sse2-unaligned.os)
 .data          0x0000000000000848        0x0 /home/saraj/Desktop/glibc_modified/build/libc_pic.a(strcmp-sse4_2.os)
 .data          0x0000000000000848        0x0 /home/saraj/Desktop/glibc_modified/build/libc_pic.a(strcspn-sse4.os)
 .data          0x0000000000000848        0x0 /home/saraj/Desktop/glibc_modified/build/libc_pic.a(strlen-avx2.os)
 .data          0x0000000000000848        0x0 /home/saraj/Desktop/glibc_modified/build/libc_pic.a(strlen-avx2-rtm.os)
 .data          0x0000000000000848        0x0 /home/saraj/Desktop/glibc_modified/build/libc_pic.a(strlen-evex.os)
 .data          0x0000000000000848        0x0 /home/saraj/Desktop/glibc_modified/build/libc_pic.a(strlen-sse2.os)
 .data          0x0000000000000848        0x0 /home/saraj/Desktop/glibc_modified/build/libc_pic.a(strncmp-avx2.os)
 .data          0x0000000000000848        0x0 /home/saraj/Desktop/glibc_modified/build/libc_pic.a(strncmp-avx2-rtm.os)
 .data          0x0000000000000848        0x0 /home/saraj/Desktop/glibc_modified/build/libc_pic.a(strncmp-evex.os)
 .data          0x0000000000000848        0x0 /home/saraj/Desktop/glibc_modified/build/libc_pic.a(strncmp-sse2.os)
 .data          0x0000000000000848        0x0 /home/saraj/Desktop/glibc_modified/build/libc_pic.a(strncmp-sse4_2.os)
 .data          0x0000000000000848        0x0 /home/saraj/Desktop/glibc_modified/build/libc_pic.a(strnlen-avx2.os)
 .data          0x0000000000000848        0x0 /home/saraj/Desktop/glibc_modified/build/libc_pic.a(strnlen-avx2-rtm.os)
 .data          0x0000000000000848        0x0 /home/saraj/Desktop/glibc_modified/build/libc_pic.a(strnlen-evex.os)
 .data          0x0000000000000848        0x0 /home/saraj/Desktop/glibc_modified/build/libc_pic.a(strnlen-sse2.os)
 .data          0x0000000000000848        0x0 /home/saraj/Desktop/glibc_modified/build/libc_pic.a(varshift.os)
 .data          0x0000000000000848        0x0 /home/saraj/Desktop/glibc_modified/build/libc_pic.a(strcspn-generic.os)
 .data          0x0000000000000848       0x30 /home/saraj/Desktop/glibc_modified/build/libc_pic.a(cacheinfo.os)
                0x0000000000000848                __x86_rep_stosb_threshold
                0x0000000000000850                __x86_rep_movsb_threshold
                0x0000000000000858                __x86_shared_cache_size
                0x0000000000000860                __x86_shared_cache_size_half
                0x0000000000000868                __x86_data_cache_size
                0x0000000000000870                __x86_data_cache_size_half
 .data          0x0000000000000878        0x0 /home/saraj/Desktop/glibc_modified/build/libc_pic.a(closedir.os)
 .data          0x0000000000000878        0x0 /home/saraj/Desktop/glibc_modified/build/libc_pic.a(fdopendir.os)
 .data          0x0000000000000878        0x0 /home/saraj/Desktop/glibc_modified/build/libc_pic.a(readdir64.os)
 .data          0x0000000000000878        0x0 /home/saraj/Desktop/glibc_modified/build/libc_pic.a(rewinddir.os)
 .data          0x0000000000000878        0x0 /home/saraj/Desktop/glibc_modified/build/libc_pic.a(_exit.os)
 .data          0x0000000000000878        0x0 /home/saraj/Desktop/glibc_modified/build/libc_pic.a(getpid.os)
 .data          0x0000000000000878        0x0 /home/saraj/Desktop/glibc_modified/build/libc_pic.a(uname.os)
 .data          0x0000000000000878        0x0 /home/saraj/Desktop/glibc_modified/build/libc_pic.a(environ.os)
 .data          0x0000000000000878        0x0 /home/saraj/Desktop/glibc_modified/build/libc_pic.a(access.os)
 .data          0x0000000000000878        0x0 /home/saraj/Desktop/glibc_modified/build/libc_pic.a(fstat64.os)
 .data          0x0000000000000878        0x0 /home/saraj/Desktop/glibc_modified/build/libc_pic.a(fstatat64.os)
 .data          0x0000000000000878        0x0 /home/saraj/Desktop/glibc_modified/build/libc_pic.a(lseek64.os)
 .data          0x0000000000000878        0x0 /home/saraj/Desktop/glibc_modified/build/libc_pic.a(lstat64.os)
 .data          0x0000000000000878        0x0 /home/saraj/Desktop/glibc_modified/build/libc_pic.a(openat64.os)
 .data          0x0000000000000878        0x0 /home/saraj/Desktop/glibc_modified/build/libc_pic.a(stat64.os)
 .data          0x0000000000000878        0x0 /home/saraj/Desktop/glibc_modified/build/libc_pic.a(close_nocancel.os)
 .data          0x0000000000000878        0x0 /home/saraj/Desktop/glibc_modified/build/libc_pic.a(close_nocancel_nostatus.os)
 .data          0x0000000000000878        0x0 /home/saraj/Desktop/glibc_modified/build/libc_pic.a(fcntl_nocancel.os)
 .data          0x0000000000000878        0x0 /home/saraj/Desktop/glibc_modified/build/libc_pic.a(open64_nocancel.os)
 .data          0x0000000000000878        0x0 /home/saraj/Desktop/glibc_modified/build/libc_pic.a(pread64_nocancel.os)
 .data          0x0000000000000878        0x0 /home/saraj/Desktop/glibc_modified/build/libc_pic.a(read_nocancel.os)
 .data          0x0000000000000878        0x0 /home/saraj/Desktop/glibc_modified/build/libc_pic.a(write_nocancel.os)
 .data          0x0000000000000878        0x0 /home/saraj/Desktop/glibc_modified/build/libc_pic.a(fd_to_filename.os)
 .data          0x0000000000000878        0x0 /home/saraj/Desktop/glibc_modified/build/libc_pic.a(mmap64.os)
 .data          0x0000000000000878        0x0 /home/saraj/Desktop/glibc_modified/build/libc_pic.a(mprotect.os)
 .data          0x0000000000000878        0x0 /home/saraj/Desktop/glibc_modified/build/libc_pic.a(munmap.os)
 .data          0x0000000000000878        0x4 /home/saraj/Desktop/glibc_modified/build/libc_pic.a(setvmaname.os)
 .data          0x000000000000087c        0x0 /home/saraj/Desktop/glibc_modified/build/libc_pic.a(prof-freq.os)
 .data          0x000000000000087c        0x0 /home/saraj/Desktop/glibc_modified/build/libc_pic.a(profil.os)
 .data          0x000000000000087c        0x0 /home/saraj/Desktop/glibc_modified/build/libc_pic.a(dl-addr-obj.os)
 .data          0x000000000000087c        0x0 /home/saraj/Desktop/glibc_modified/build/libc_pic.a(libc_sigaction.os)
 .data          0x000000000000087c        0x0 /home/saraj/Desktop/glibc_modified/build/libc_pic.a(errname.os)
 .data          0x000000000000087c        0x0 /home/saraj/Desktop/glibc_modified/build/libc_pic.a(strchrnul.os)
 .data          0x000000000000087c        0x0 /home/saraj/Desktop/glibc_modified/build/libc_pic.a(strchrnul-avx2.os)
 .data          0x000000000000087c        0x0 /home/saraj/Desktop/glibc_modified/build/libc_pic.a(strchrnul-avx2-rtm.os)
 .data          0x000000000000087c        0x0 /home/saraj/Desktop/glibc_modified/build/libc_pic.a(strchrnul-evex.os)
 .data          0x000000000000087c        0x0 /home/saraj/Desktop/glibc_modified/build/libc_pic.a(strchrnul-sse2.os)
 .data          0x000000000000087c        0x0 /home/saraj/Desktop/glibc_modified/build/libc_pic.a(setitimer.os)
 .data          0x000000000000087c        0x0 /home/saraj/Desktop/glibc_modified/build/libc_pic.a(getdents64.os)

.data.rel.ro    0x0000000000000000     0x1bc0
 .data.rel.ro   0x0000000000000000     0x1bc0 /home/saraj/Desktop/glibc_modified/build/elf/dl-allobjs.os
                0x0000000000000050                __rtld_search_dirs
                0x0000000000000080                __rtld_env_path_list
                0x0000000000000090                _dl_tls_initial_modid_limit
                0x0000000000001778                __GI___rseq_size
                0x0000000000001778                _rseq_size
                0x0000000000001778                __rseq_size
                0x0000000000001780                __rseq_offset
                0x0000000000001780                __GI___rseq_offset
                0x0000000000001780                _rseq_offset
                0x0000000000001788                __rtld_realloc
                0x0000000000001790                __rtld_malloc
                0x0000000000001798                __rtld_free
                0x00000000000017a0                __rtld_calloc
                0x00000000000017a8                ___rtld_mutex_unlock
                0x00000000000017b0                ___rtld_mutex_lock
                0x00000000000017b8                _dl_random
                0x00000000000017c0                __libc_stack_end
                0x00000000000017c0                __GI___libc_stack_end
                0x00000000000017c8                __GI___libc_enable_secure
                0x00000000000017c8                __libc_enable_secure
                0x00000000000017f0                __pointer_chk_guard_local
                0x00000000000017f8                __GI__dl_argv
                0x00000000000017f8                _dl_argv
                0x0000000000001800                _dl_argc
                0x0000000000001820                _rtld_global_ro
                0x0000000000001820                _rtld_local_ro

.data.rel.ro.local
                0x0000000000000000       0x30
 .data.rel.ro.local
                0x0000000000000000       0x28 /home/saraj/Desktop/glibc_modified/build/elf/dl-allobjs.os
                0x0000000000000000                __x86_cpu_features_p
 .data.rel.ro.local
                0x0000000000000028        0x8 /home/saraj/Desktop/glibc_modified/build/libc_pic.a(cacheinfo.os)
                0x0000000000000028                __x86_cacheinfo_p

.data1
 *(.data1)

.bss            0x0000000000000000      0xb60
 *(.bss)
 .bss           0x0000000000000000        0x0 /home/saraj/Desktop/glibc_modified/build/elf/librtld.mapT.o
 .bss           0x0000000000000000      0xa40 /home/saraj/Desktop/glibc_modified/build/elf/dl-allobjs.os
                0x0000000000000020                _r_debug_array
                0x00000000000002f8                __GI__r_debug
                0x00000000000002f8                _r_debug_extended
                0x00000000000002f8                _r_debug
                0x0000000000000370                _dl_tls_threads_in_update
                0x0000000000000378                _rseq_align
                0x0000000000000380                __nptl_initial_report_events
                0x0000000000000380                __GI___nptl_initial_report_events
                0x00000000000003b8                _dl_x86_features_tlsdesc_state_size
                0x00000000000003c0                _dl_hwcaps_priorities_length
                0x00000000000003c8                _dl_hwcaps_priorities
                0x0000000000000420                __rtld_tls_init_tp_called
                0x0000000000000440                _dl_rtld_auditstate
                0x0000000000000540                _dl_rtld_map
                0x0000000000000a38                __curbrk
 .bss           0x0000000000000a40        0x0 /home/saraj/Desktop/glibc_modified/build/libc_pic.a(check_fds.os)
 .bss           0x0000000000000a40        0x0 /home/saraj/Desktop/glibc_modified/build/libc_pic.a(errno.os)
 .bss           0x0000000000000a40        0x0 /home/saraj/Desktop/glibc_modified/build/libc_pic.a(setjmp.os)
 .bss           0x0000000000000a40        0x0 /home/saraj/Desktop/glibc_modified/build/libc_pic.a(__longjmp.os)
 .bss           0x0000000000000a40        0x0 /home/saraj/Desktop/glibc_modified/build/libc_pic.a(getenv.os)
 .bss           0x0000000000000a40        0x0 /home/saraj/Desktop/glibc_modified/build/libc_pic.a(_fitoa_word.os)
 .bss           0x0000000000000a40        0x0 /home/saraj/Desktop/glibc_modified/build/libc_pic.a(itoa-udigits.os)
 .bss           0x0000000000000a40        0x4 /home/saraj/Desktop/glibc_modified/build/libc_pic.a(lowlevellock.os)
                0x0000000000000a40                __GI___pthread_force_elision
                0x0000000000000a40                __pthread_force_elision
 .bss           0x0000000000000a44        0x0 /home/saraj/Desktop/glibc_modified/build/libc_pic.a(scratch_buffer_set_array_size.os)
 .bss           0x0000000000000a44        0x0 /home/saraj/Desktop/glibc_modified/build/libc_pic.a(memchr.os)
 .bss           0x0000000000000a44        0x0 /home/saraj/Desktop/glibc_modified/build/libc_pic.a(memcmp.os)
 .bss           0x0000000000000a44        0x0 /home/saraj/Desktop/glibc_modified/build/libc_pic.a(memcpy.os)
 .bss           0x0000000000000a44        0x0 /home/saraj/Desktop/glibc_modified/build/libc_pic.a(memmove.os)
 .bss           0x0000000000000a44        0x0 /home/saraj/Desktop/glibc_modified/build/libc_pic.a(mempcpy.os)
 .bss           0x0000000000000a44        0x0 /home/saraj/Desktop/glibc_modified/build/libc_pic.a(memset.os)
 .bss           0x0000000000000a44        0x0 /home/saraj/Desktop/glibc_modified/build/libc_pic.a(stpcpy.os)
 .bss           0x0000000000000a44        0x0 /home/saraj/Desktop/glibc_modified/build/libc_pic.a(strchr.os)
 .bss           0x0000000000000a44        0x0 /home/saraj/Desktop/glibc_modified/build/libc_pic.a(strcmp.os)
 .bss           0x0000000000000a44        0x0 /home/saraj/Desktop/glibc_modified/build/libc_pic.a(strcspn.os)
 .bss           0x0000000000000a44        0x0 /home/saraj/Desktop/glibc_modified/build/libc_pic.a(strdup.os)
 .bss           0x0000000000000a44        0x0 /home/saraj/Desktop/glibc_modified/build/libc_pic.a(strerrorname_np.os)
 .bss           0x0000000000000a44        0x0 /home/saraj/Desktop/glibc_modified/build/libc_pic.a(strlen.os)
 .bss           0x0000000000000a44        0x0 /home/saraj/Desktop/glibc_modified/build/libc_pic.a(strncmp.os)
 .bss           0x0000000000000a44        0x0 /home/saraj/Desktop/glibc_modified/build/libc_pic.a(strnlen.os)
 .bss           0x0000000000000a44        0x0 /home/saraj/Desktop/glibc_modified/build/libc_pic.a(memchr-avx2.os)
 .bss           0x0000000000000a44        0x0 /home/saraj/Desktop/glibc_modified/build/libc_pic.a(memchr-avx2-rtm.os)
 .bss           0x0000000000000a44        0x0 /home/saraj/Desktop/glibc_modified/build/libc_pic.a(memchr-evex.os)
 .bss           0x0000000000000a44        0x0 /home/saraj/Desktop/glibc_modified/build/libc_pic.a(memchr-evex-rtm.os)
 .bss           0x0000000000000a44        0x0 /home/saraj/Desktop/glibc_modified/build/libc_pic.a(memchr-sse2.os)
 .bss           0x0000000000000a44        0x0 /home/saraj/Desktop/glibc_modified/build/libc_pic.a(memcmp-avx2-movbe.os)
 .bss           0x0000000000000a44        0x0 /home/saraj/Desktop/glibc_modified/build/libc_pic.a(memcmp-avx2-movbe-rtm.os)
 .bss           0x0000000000000a44        0x0 /home/saraj/Desktop/glibc_modified/build/libc_pic.a(memcmp-evex-movbe.os)
 .bss           0x0000000000000a44        0x0 /home/saraj/Desktop/glibc_modified/build/libc_pic.a(memcmp-sse2.os)
 .bss           0x0000000000000a44        0x0 /home/saraj/Desktop/glibc_modified/build/libc_pic.a(memmove-avx-unaligned-erms.os)
 .bss           0x0000000000000a44        0x0 /home/saraj/Desktop/glibc_modified/build/libc_pic.a(memmove-avx-unaligned-erms-rtm.os)
 .bss           0x0000000000000a44        0x0 /home/saraj/Desktop/glibc_modified/build/libc_pic.a(memmove-avx512-no-vzeroupper.os)
 .bss           0x0000000000000a44        0x0 /home/saraj/Desktop/glibc_modified/build/libc_pic.a(memmove-avx512-unaligned-erms.os)
 .bss           0x0000000000000a44        0x0 /home/saraj/Desktop/glibc_modified/build/libc_pic.a(memmove-erms.os)
 .bss           0x0000000000000a44        0x0 /home/saraj/Desktop/glibc_modified/build/libc_pic.a(memmove-evex-unaligned-erms.os)
 .bss           0x0000000000000a44        0x0 /home/saraj/Desktop/glibc_modified/build/libc_pic.a(memmove-sse2-unaligned-erms.os)
 .bss           0x0000000000000a44        0x0 /home/saraj/Desktop/glibc_modified/build/libc_pic.a(memmove-ssse3.os)
 .bss           0x0000000000000a44        0x0 /home/saraj/Desktop/glibc_modified/build/libc_pic.a(memset-avx2-unaligned-erms.os)
 .bss           0x0000000000000a44        0x0 /home/saraj/Desktop/glibc_modified/build/libc_pic.a(memset-avx2-unaligned-erms-rtm.os)
 .bss           0x0000000000000a44        0x0 /home/saraj/Desktop/glibc_modified/build/libc_pic.a(memset-avx512-no-vzeroupper.os)
 .bss           0x0000000000000a44        0x0 /home/saraj/Desktop/glibc_modified/build/libc_pic.a(memset-avx512-unaligned-erms.os)
 .bss           0x0000000000000a44        0x0 /home/saraj/Desktop/glibc_modified/build/libc_pic.a(memset-erms.os)
 .bss           0x0000000000000a44        0x0 /home/saraj/Desktop/glibc_modified/build/libc_pic.a(memset-evex-unaligned-erms.os)
 .bss           0x0000000000000a44        0x0 /home/saraj/Desktop/glibc_modified/build/libc_pic.a(memset-sse2-unaligned-erms.os)
 .bss           0x0000000000000a44        0x0 /home/saraj/Desktop/glibc_modified/build/libc_pic.a(stpcpy-avx2.os)
 .bss           0x0000000000000a44        0x0 /home/saraj/Desktop/glibc_modified/build/libc_pic.a(stpcpy-avx2-rtm.os)
 .bss           0x0000000000000a44        0x0 /home/saraj/Desktop/glibc_modified/build/libc_pic.a(stpcpy-evex.os)
 .bss           0x0000000000000a44        0x0 /home/saraj/Desktop/glibc_modified/build/libc_pic.a(stpcpy-sse2.os)
 .bss           0x0000000000000a44        0x0 /home/saraj/Desktop/glibc_modified/build/libc_pic.a(stpcpy-sse2-unaligned.os)
 .bss           0x0000000000000a44        0x0 /home/saraj/Desktop/glibc_modified/build/libc_pic.a(strchr-avx2.os)
 .bss           0x0000000000000a44        0x0 /home/saraj/Desktop/glibc_modified/build/libc_pic.a(strchr-avx2-rtm.os)
 .bss           0x0000000000000a44        0x0 /home/saraj/Desktop/glibc_modified/build/libc_pic.a(strchr-evex.os)
 .bss           0x0000000000000a44        0x0 /home/saraj/Desktop/glibc_modified/build/libc_pic.a(strchr-sse2.os)
 .bss           0x0000000000000a44        0x0 /home/saraj/Desktop/glibc_modified/build/libc_pic.a(strchr-sse2-no-bsf.os)
 .bss           0x0000000000000a44        0x0 /home/saraj/Desktop/glibc_modified/build/libc_pic.a(strcmp-avx2.os)
 .bss           0x0000000000000a44        0x0 /home/saraj/Desktop/glibc_modified/build/libc_pic.a(strcmp-avx2-rtm.os)
 .bss           0x0000000000000a44        0x0 /home/saraj/Desktop/glibc_modified/build/libc_pic.a(strcmp-evex.os)
 .bss           0x0000000000000a44        0x0 /home/saraj/Desktop/glibc_modified/build/libc_pic.a(strcmp-sse2.os)
 .bss           0x0000000000000a44        0x0 /home/saraj/Desktop/glibc_modified/build/libc_pic.a(strcmp-sse2-unaligned.os)
 .bss           0x0000000000000a44        0x0 /home/saraj/Desktop/glibc_modified/build/libc_pic.a(strcmp-sse4_2.os)
 .bss           0x0000000000000a44        0x0 /home/saraj/Desktop/glibc_modified/build/libc_pic.a(strcspn-sse4.os)
 .bss           0x0000000000000a44        0x0 /home/saraj/Desktop/glibc_modified/build/libc_pic.a(strlen-avx2.os)
 .bss           0x0000000000000a44        0x0 /home/saraj/Desktop/glibc_modified/build/libc_pic.a(strlen-avx2-rtm.os)
 .bss           0x0000000000000a44        0x0 /home/saraj/Desktop/glibc_modified/build/libc_pic.a(strlen-evex.os)
 .bss           0x0000000000000a44        0x0 /home/saraj/Desktop/glibc_modified/build/libc_pic.a(strlen-sse2.os)
 .bss           0x0000000000000a44        0x0 /home/saraj/Desktop/glibc_modified/build/libc_pic.a(strncmp-avx2.os)
 .bss           0x0000000000000a44        0x0 /home/saraj/Desktop/glibc_modified/build/libc_pic.a(strncmp-avx2-rtm.os)
 .bss           0x0000000000000a44        0x0 /home/saraj/Desktop/glibc_modified/build/libc_pic.a(strncmp-evex.os)
 .bss           0x0000000000000a44        0x0 /home/saraj/Desktop/glibc_modified/build/libc_pic.a(strncmp-sse2.os)
 .bss           0x0000000000000a44        0x0 /home/saraj/Desktop/glibc_modified/build/libc_pic.a(strncmp-sse4_2.os)
 .bss           0x0000000000000a44        0x0 /home/saraj/Desktop/glibc_modified/build/libc_pic.a(strnlen-avx2.os)
 .bss           0x0000000000000a44        0x0 /home/saraj/Desktop/glibc_modified/build/libc_pic.a(strnlen-avx2-rtm.os)
 .bss           0x0000000000000a44        0x0 /home/saraj/Desktop/glibc_modified/build/libc_pic.a(strnlen-evex.os)
 .bss           0x0000000000000a44        0x0 /home/saraj/Desktop/glibc_modified/build/libc_pic.a(strnlen-sse2.os)
 .bss           0x0000000000000a44        0x0 /home/saraj/Desktop/glibc_modified/build/libc_pic.a(varshift.os)
 .bss           0x0000000000000a44        0x0 /home/saraj/Desktop/glibc_modified/build/libc_pic.a(strcspn-generic.os)
 *fill*         0x0000000000000a44        0x4 
 .bss           0x0000000000000a48       0x20 /home/saraj/Desktop/glibc_modified/build/libc_pic.a(cacheinfo.os)
                0x0000000000000a48                __x86_string_control
                0x0000000000000a50                __x86_rep_movsb_stop_threshold
                0x0000000000000a58                __x86_memset_non_temporal_threshold
                0x0000000000000a60                __x86_shared_non_temporal_threshold
 .bss           0x0000000000000a68        0x0 /home/saraj/Desktop/glibc_modified/build/libc_pic.a(closedir.os)
 .bss           0x0000000000000a68        0x0 /home/saraj/Desktop/glibc_modified/build/libc_pic.a(fdopendir.os)
 .bss           0x0000000000000a68        0x0 /home/saraj/Desktop/glibc_modified/build/libc_pic.a(readdir64.os)
 .bss           0x0000000000000a68        0x0 /home/saraj/Desktop/glibc_modified/build/libc_pic.a(rewinddir.os)
 .bss           0x0000000000000a68        0x0 /home/saraj/Desktop/glibc_modified/build/libc_pic.a(_exit.os)
 .bss           0x0000000000000a68        0x0 /home/saraj/Desktop/glibc_modified/build/libc_pic.a(getpid.os)
 .bss           0x0000000000000a68        0x0 /home/saraj/Desktop/glibc_modified/build/libc_pic.a(uname.os)
 .bss           0x0000000000000a68       0x18 /home/saraj/Desktop/glibc_modified/build/libc_pic.a(environ.os)
                0x0000000000000a68                __environ_counter
                0x0000000000000a70                __environ_array_list
                0x0000000000000a78                _environ
                0x0000000000000a78                __environ
                0x0000000000000a78                environ
 .bss           0x0000000000000a80        0x0 /home/saraj/Desktop/glibc_modified/build/libc_pic.a(access.os)
 .bss           0x0000000000000a80        0x0 /home/saraj/Desktop/glibc_modified/build/libc_pic.a(fstat64.os)
 .bss           0x0000000000000a80        0x0 /home/saraj/Desktop/glibc_modified/build/libc_pic.a(fstatat64.os)
 .bss           0x0000000000000a80        0x0 /home/saraj/Desktop/glibc_modified/build/libc_pic.a(lseek64.os)
 .bss           0x0000000000000a80        0x0 /home/saraj/Desktop/glibc_modified/build/libc_pic.a(lstat64.os)
 .bss           0x0000000000000a80        0x0 /home/saraj/Desktop/glibc_modified/build/libc_pic.a(openat64.os)
 .bss           0x0000000000000a80        0x0 /home/saraj/Desktop/glibc_modified/build/libc_pic.a(stat64.os)
 .bss           0x0000000000000a80        0x0 /home/saraj/Desktop/glibc_modified/build/libc_pic.a(close_nocancel.os)
 .bss           0x0000000000000a80        0x0 /home/saraj/Desktop/glibc_modified/build/libc_pic.a(close_nocancel_nostatus.os)
 .bss           0x0000000000000a80        0x0 /home/saraj/Desktop/glibc_modified/build/libc_pic.a(fcntl_nocancel.os)
 .bss           0x0000000000000a80        0x0 /home/saraj/Desktop/glibc_modified/build/libc_pic.a(open64_nocancel.os)
 .bss           0x0000000000000a80        0x0 /home/saraj/Desktop/glibc_modified/build/libc_pic.a(pread64_nocancel.os)
 .bss           0x0000000000000a80        0x0 /home/saraj/Desktop/glibc_modified/build/libc_pic.a(read_nocancel.os)
 .bss           0x0000000000000a80        0x0 /home/saraj/Desktop/glibc_modified/build/libc_pic.a(write_nocancel.os)
 .bss           0x0000000000000a80        0x0 /home/saraj/Desktop/glibc_modified/build/libc_pic.a(fd_to_filename.os)
 .bss           0x0000000000000a80        0x0 /home/saraj/Desktop/glibc_modified/build/libc_pic.a(mmap64.os)
 .bss           0x0000000000000a80        0x0 /home/saraj/Desktop/glibc_modified/build/libc_pic.a(mprotect.os)
 .bss           0x0000000000000a80        0x0 /home/saraj/Desktop/glibc_modified/build/libc_pic.a(munmap.os)
 .bss           0x0000000000000a80        0x0 /home/saraj/Desktop/glibc_modified/build/libc_pic.a(setvmaname.os)
 .bss           0x0000000000000a80        0x0 /home/saraj/Desktop/glibc_modified/build/libc_pic.a(prof-freq.os)
 .bss           0x0000000000000a80       0xe0 /home/saraj/Desktop/glibc_modified/build/libc_pic.a(profil.os)
 .bss           0x0000000000000b60        0x0 /home/saraj/Desktop/glibc_modified/build/libc_pic.a(dl-addr-obj.os)
 .bss           0x0000000000000b60        0x0 /home/saraj/Desktop/glibc_modified/build/libc_pic.a(libc_sigaction.os)
 .bss           0x0000000000000b60        0x0 /home/saraj/Desktop/glibc_modified/build/libc_pic.a(errname.os)
 .bss           0x0000000000000b60        0x0 /home/saraj/Desktop/glibc_modified/build/libc_pic.a(strchrnul.os)
 .bss           0x0000000000000b60        0x0 /home/saraj/Desktop/glibc_modified/build/libc_pic.a(strchrnul-avx2.os)
 .bss           0x0000000000000b60        0x0 /home/saraj/Desktop/glibc_modified/build/libc_pic.a(strchrnul-avx2-rtm.os)
 .bss           0x0000000000000b60        0x0 /home/saraj/Desktop/glibc_modified/build/libc_pic.a(strchrnul-evex.os)
 .bss           0x0000000000000b60        0x0 /home/saraj/Desktop/glibc_modified/build/libc_pic.a(strchrnul-sse2.os)
 .bss           0x0000000000000b60        0x0 /home/saraj/Desktop/glibc_modified/build/libc_pic.a(setitimer.os)
 .bss           0x0000000000000b60        0x0 /home/saraj/Desktop/glibc_modified/build/libc_pic.a(getdents64.os)

.lbss
 *(.lbss)

.lrodata
 *(.lrodata)

.ldata
 *(.ldata)

.stab
 *(.stab)

.stabstr
 *(.stabstr)

.stab.excl
 *(.stab.excl)

.stab.exclstr
 *(.stab.exclstr)

.stab.index
 *(.stab.index)

.stab.indexstr
 *(.stab.indexstr)

.comment        0x0000000000000000     0x13f0
 *(.comment)
 .comment       0x0000000000000000      0xa24 /home/saraj/Desktop/glibc_modified/build/elf/dl-allobjs.os
 .comment       0x0000000000000a24       0x2c /home/saraj/Desktop/glibc_modified/build/libc_pic.a(check_fds.os)
 .comment       0x0000000000000a50       0x2c /home/saraj/Desktop/glibc_modified/build/libc_pic.a(errno.os)
 .comment       0x0000000000000a7c       0x2c /home/saraj/Desktop/glibc_modified/build/libc_pic.a(getenv.os)
 .comment       0x0000000000000aa8       0x2c /home/saraj/Desktop/glibc_modified/build/libc_pic.a(_fitoa_word.os)
 .comment       0x0000000000000ad4       0x2c /home/saraj/Desktop/glibc_modified/build/libc_pic.a(itoa-udigits.os)
 .comment       0x0000000000000b00       0x2c /home/saraj/Desktop/glibc_modified/build/libc_pic.a(lowlevellock.os)
 .comment       0x0000000000000b2c       0x2c /home/saraj/Desktop/glibc_modified/build/libc_pic.a(scratch_buffer_set_array_size.os)
 .comment       0x0000000000000b58       0x2c /home/saraj/Desktop/glibc_modified/build/libc_pic.a(memchr.os)
 .comment       0x0000000000000b84       0x2c /home/saraj/Desktop/glibc_modified/build/libc_pic.a(memcmp.os)
 .comment       0x0000000000000bb0       0x2c /home/saraj/Desktop/glibc_modified/build/libc_pic.a(memcpy.os)
 .comment       0x0000000000000bdc       0x2c /home/saraj/Desktop/glibc_modified/build/libc_pic.a(memmove.os)
 .comment       0x0000000000000c08       0x2c /home/saraj/Desktop/glibc_modified/build/libc_pic.a(mempcpy.os)
 .comment       0x0000000000000c34       0x2c /home/saraj/Desktop/glibc_modified/build/libc_pic.a(memset.os)
 .comment       0x0000000000000c60       0x2c /home/saraj/Desktop/glibc_modified/build/libc_pic.a(stpcpy.os)
 .comment       0x0000000000000c8c       0x2c /home/saraj/Desktop/glibc_modified/build/libc_pic.a(strchr.os)
 .comment       0x0000000000000cb8       0x2c /home/saraj/Desktop/glibc_modified/build/libc_pic.a(strcmp.os)
 .comment       0x0000000000000ce4       0x2c /home/saraj/Desktop/glibc_modified/build/libc_pic.a(strcspn.os)
 .comment       0x0000000000000d10       0x2c /home/saraj/Desktop/glibc_modified/build/libc_pic.a(strdup.os)
 .comment       0x0000000000000d3c       0x2c /home/saraj/Desktop/glibc_modified/build/libc_pic.a(strerrorname_np.os)
 .comment       0x0000000000000d68       0x2c /home/saraj/Desktop/glibc_modified/build/libc_pic.a(strlen.os)
 .comment       0x0000000000000d94       0x2c /home/saraj/Desktop/glibc_modified/build/libc_pic.a(strncmp.os)
 .comment       0x0000000000000dc0       0x2c /home/saraj/Desktop/glibc_modified/build/libc_pic.a(strnlen.os)
 .comment       0x0000000000000dec       0x2c /home/saraj/Desktop/glibc_modified/build/libc_pic.a(strcspn-sse4.os)
 .comment       0x0000000000000e18       0x2c /home/saraj/Desktop/glibc_modified/build/libc_pic.a(varshift.os)
 .comment       0x0000000000000e44       0x2c /home/saraj/Desktop/glibc_modified/build/libc_pic.a(strcspn-generic.os)
 .comment       0x0000000000000e70       0x2c /home/saraj/Desktop/glibc_modified/build/libc_pic.a(cacheinfo.os)
 .comment       0x0000000000000e9c       0x2c /home/saraj/Desktop/glibc_modified/build/libc_pic.a(closedir.os)
 .comment       0x0000000000000ec8       0x2c /home/saraj/Desktop/glibc_modified/build/libc_pic.a(fdopendir.os)
 .comment       0x0000000000000ef4       0x2c /home/saraj/Desktop/glibc_modified/build/libc_pic.a(readdir64.os)
 .comment       0x0000000000000f20       0x2c /home/saraj/Desktop/glibc_modified/build/libc_pic.a(rewinddir.os)
 .comment       0x0000000000000f4c       0x2c /home/saraj/Desktop/glibc_modified/build/libc_pic.a(_exit.os)
 .comment       0x0000000000000f78       0x2c /home/saraj/Desktop/glibc_modified/build/libc_pic.a(environ.os)
 .comment       0x0000000000000fa4       0x2c /home/saraj/Desktop/glibc_modified/build/libc_pic.a(access.os)
 .comment       0x0000000000000fd0       0x2c /home/saraj/Desktop/glibc_modified/build/libc_pic.a(fstat64.os)
 .comment       0x0000000000000ffc       0x2c /home/saraj/Desktop/glibc_modified/build/libc_pic.a(fstatat64.os)
 .comment       0x0000000000001028       0x2c /home/saraj/Desktop/glibc_modified/build/libc_pic.a(lseek64.os)
 .comment       0x0000000000001054       0x2c /home/saraj/Desktop/glibc_modified/build/libc_pic.a(lstat64.os)
 .comment       0x0000000000001080       0x2c /home/saraj/Desktop/glibc_modified/build/libc_pic.a(openat64.os)
 .comment       0x00000000000010ac       0x2c /home/saraj/Desktop/glibc_modified/build/libc_pic.a(stat64.os)
 .comment       0x00000000000010d8       0x2c /home/saraj/Desktop/glibc_modified/build/libc_pic.a(close_nocancel.os)
 .comment       0x0000000000001104       0x2c /home/saraj/Desktop/glibc_modified/build/libc_pic.a(close_nocancel_nostatus.os)
 .comment       0x0000000000001130       0x2c /home/saraj/Desktop/glibc_modified/build/libc_pic.a(fcntl_nocancel.os)
 .comment       0x000000000000115c       0x2c /home/saraj/Desktop/glibc_modified/build/libc_pic.a(open64_nocancel.os)
 .comment       0x0000000000001188       0x2c /home/saraj/Desktop/glibc_modified/build/libc_pic.a(pread64_nocancel.os)
 .comment       0x00000000000011b4       0x2c /home/saraj/Desktop/glibc_modified/build/libc_pic.a(read_nocancel.os)
 .comment       0x00000000000011e0       0x2c /home/saraj/Desktop/glibc_modified/build/libc_pic.a(write_nocancel.os)
 .comment       0x000000000000120c       0x2c /home/saraj/Desktop/glibc_modified/build/libc_pic.a(fd_to_filename.os)
 .comment       0x0000000000001238       0x2c /home/saraj/Desktop/glibc_modified/build/libc_pic.a(mmap64.os)
 .comment       0x0000000000001264       0x2c /home/saraj/Desktop/glibc_modified/build/libc_pic.a(setvmaname.os)
 .comment       0x0000000000001290       0x2c /home/saraj/Desktop/glibc_modified/build/libc_pic.a(prof-freq.os)
 .comment       0x00000000000012bc       0x2c /home/saraj/Desktop/glibc_modified/build/libc_pic.a(profil.os)
 .comment       0x00000000000012e8       0x2c /home/saraj/Desktop/glibc_modified/build/libc_pic.a(dl-addr-obj.os)
 .comment       0x0000000000001314       0x2c /home/saraj/Desktop/glibc_modified/build/libc_pic.a(libc_sigaction.os)
 .comment       0x0000000000001340       0x2c /home/saraj/Desktop/glibc_modified/build/libc_pic.a(errname.os)
 .comment       0x000000000000136c       0x2c /home/saraj/Desktop/glibc_modified/build/libc_pic.a(strchrnul.os)
 .comment       0x0000000000001398       0x2c /home/saraj/Desktop/glibc_modified/build/libc_pic.a(setitimer.os)
 .comment       0x00000000000013c4       0x2c /home/saraj/Desktop/glibc_modified/build/libc_pic.a(getdents64.os)

.note.GNU-stack
                0x0000000000000000        0x0
 .note.GNU-stack
                0x0000000000000000        0x0 /home/saraj/Desktop/glibc_modified/build/elf/librtld.mapT.o
 .note.GNU-stack
                0x0000000000000000        0x0 /home/saraj/Desktop/glibc_modified/build/elf/dl-allobjs.os
 .note.GNU-stack
                0x0000000000000000        0x0 /home/saraj/Desktop/glibc_modified/build/libc_pic.a(check_fds.os)
 .note.GNU-stack
                0x0000000000000000        0x0 /home/saraj/Desktop/glibc_modified/build/libc_pic.a(errno.os)
 .note.GNU-stack
                0x0000000000000000        0x0 /home/saraj/Desktop/glibc_modified/build/libc_pic.a(setjmp.os)
 .note.GNU-stack
                0x0000000000000000        0x0 /home/saraj/Desktop/glibc_modified/build/libc_pic.a(__longjmp.os)
 .note.GNU-stack
                0x0000000000000000        0x0 /home/saraj/Desktop/glibc_modified/build/libc_pic.a(getenv.os)
 .note.GNU-stack
                0x0000000000000000        0x0 /home/saraj/Desktop/glibc_modified/build/libc_pic.a(_fitoa_word.os)
 .note.GNU-stack
                0x0000000000000000        0x0 /home/saraj/Desktop/glibc_modified/build/libc_pic.a(itoa-udigits.os)
 .note.GNU-stack
                0x0000000000000000        0x0 /home/saraj/Desktop/glibc_modified/build/libc_pic.a(lowlevellock.os)
 .note.GNU-stack
                0x0000000000000000        0x0 /home/saraj/Desktop/glibc_modified/build/libc_pic.a(scratch_buffer_set_array_size.os)
 .note.GNU-stack
                0x0000000000000000        0x0 /home/saraj/Desktop/glibc_modified/build/libc_pic.a(memchr.os)
 .note.GNU-stack
                0x0000000000000000        0x0 /home/saraj/Desktop/glibc_modified/build/libc_pic.a(memcmp.os)
 .note.GNU-stack
                0x0000000000000000        0x0 /home/saraj/Desktop/glibc_modified/build/libc_pic.a(memcpy.os)
 .note.GNU-stack
                0x0000000000000000        0x0 /home/saraj/Desktop/glibc_modified/build/libc_pic.a(memmove.os)
 .note.GNU-stack
                0x0000000000000000        0x0 /home/saraj/Desktop/glibc_modified/build/libc_pic.a(mempcpy.os)
 .note.GNU-stack
                0x0000000000000000        0x0 /home/saraj/Desktop/glibc_modified/build/libc_pic.a(memset.os)
 .note.GNU-stack
                0x0000000000000000        0x0 /home/saraj/Desktop/glibc_modified/build/libc_pic.a(stpcpy.os)
 .note.GNU-stack
                0x0000000000000000        0x0 /home/saraj/Desktop/glibc_modified/build/libc_pic.a(strchr.os)
 .note.GNU-stack
                0x0000000000000000        0x0 /home/saraj/Desktop/glibc_modified/build/libc_pic.a(strcmp.os)
 .note.GNU-stack
                0x0000000000000000        0x0 /home/saraj/Desktop/glibc_modified/build/libc_pic.a(strcspn.os)
 .note.GNU-stack
                0x0000000000000000        0x0 /home/saraj/Desktop/glibc_modified/build/libc_pic.a(strdup.os)
 .note.GNU-stack
                0x0000000000000000        0x0 /home/saraj/Desktop/glibc_modified/build/libc_pic.a(strerrorname_np.os)
 .note.GNU-stack
                0x0000000000000000        0x0 /home/saraj/Desktop/glibc_modified/build/libc_pic.a(strlen.os)
 .note.GNU-stack
                0x0000000000000000        0x0 /home/saraj/Desktop/glibc_modified/build/libc_pic.a(strncmp.os)
 .note.GNU-stack
                0x0000000000000000        0x0 /home/saraj/Desktop/glibc_modified/build/libc_pic.a(strnlen.os)
 .note.GNU-stack
                0x0000000000000000        0x0 /home/saraj/Desktop/glibc_modified/build/libc_pic.a(memchr-avx2.os)
 .note.GNU-stack
                0x0000000000000000        0x0 /home/saraj/Desktop/glibc_modified/build/libc_pic.a(memchr-avx2-rtm.os)
 .note.GNU-stack
                0x0000000000000000        0x0 /home/saraj/Desktop/glibc_modified/build/libc_pic.a(memchr-evex.os)
 .note.GNU-stack
                0x0000000000000000        0x0 /home/saraj/Desktop/glibc_modified/build/libc_pic.a(memchr-evex-rtm.os)
 .note.GNU-stack
                0x0000000000000000        0x0 /home/saraj/Desktop/glibc_modified/build/libc_pic.a(memchr-sse2.os)
 .note.GNU-stack
                0x0000000000000000        0x0 /home/saraj/Desktop/glibc_modified/build/libc_pic.a(memcmp-avx2-movbe.os)
 .note.GNU-stack
                0x0000000000000000        0x0 /home/saraj/Desktop/glibc_modified/build/libc_pic.a(memcmp-avx2-movbe-rtm.os)
 .note.GNU-stack
                0x0000000000000000        0x0 /home/saraj/Desktop/glibc_modified/build/libc_pic.a(memcmp-evex-movbe.os)
 .note.GNU-stack
                0x0000000000000000        0x0 /home/saraj/Desktop/glibc_modified/build/libc_pic.a(memcmp-sse2.os)
 .note.GNU-stack
                0x0000000000000000        0x0 /home/saraj/Desktop/glibc_modified/build/libc_pic.a(memmove-avx-unaligned-erms.os)
 .note.GNU-stack
                0x0000000000000000        0x0 /home/saraj/Desktop/glibc_modified/build/libc_pic.a(memmove-avx-unaligned-erms-rtm.os)
 .note.GNU-stack
                0x0000000000000000        0x0 /home/saraj/Desktop/glibc_modified/build/libc_pic.a(memmove-avx512-no-vzeroupper.os)
 .note.GNU-stack
                0x0000000000000000        0x0 /home/saraj/Desktop/glibc_modified/build/libc_pic.a(memmove-avx512-unaligned-erms.os)
 .note.GNU-stack
                0x0000000000000000        0x0 /home/saraj/Desktop/glibc_modified/build/libc_pic.a(memmove-erms.os)
 .note.GNU-stack
                0x0000000000000000        0x0 /home/saraj/Desktop/glibc_modified/build/libc_pic.a(memmove-evex-unaligned-erms.os)
 .note.GNU-stack
                0x0000000000000000        0x0 /home/saraj/Desktop/glibc_modified/build/libc_pic.a(memmove-sse2-unaligned-erms.os)
 .note.GNU-stack
                0x0000000000000000        0x0 /home/saraj/Desktop/glibc_modified/build/libc_pic.a(memmove-ssse3.os)
 .note.GNU-stack
                0x0000000000000000        0x0 /home/saraj/Desktop/glibc_modified/build/libc_pic.a(memset-avx2-unaligned-erms.os)
 .note.GNU-stack
                0x0000000000000000        0x0 /home/saraj/Desktop/glibc_modified/build/libc_pic.a(memset-avx2-unaligned-erms-rtm.os)
 .note.GNU-stack
                0x0000000000000000        0x0 /home/saraj/Desktop/glibc_modified/build/libc_pic.a(memset-avx512-no-vzeroupper.os)
 .note.GNU-stack
                0x0000000000000000        0x0 /home/saraj/Desktop/glibc_modified/build/libc_pic.a(memset-avx512-unaligned-erms.os)
 .note.GNU-stack
                0x0000000000000000        0x0 /home/saraj/Desktop/glibc_modified/build/libc_pic.a(memset-erms.os)
 .note.GNU-stack
                0x0000000000000000        0x0 /home/saraj/Desktop/glibc_modified/build/libc_pic.a(memset-evex-unaligned-erms.os)
 .note.GNU-stack
                0x0000000000000000        0x0 /home/saraj/Desktop/glibc_modified/build/libc_pic.a(memset-sse2-unaligned-erms.os)
 .note.GNU-stack
                0x0000000000000000        0x0 /home/saraj/Desktop/glibc_modified/build/libc_pic.a(stpcpy-avx2.os)
 .note.GNU-stack
                0x0000000000000000        0x0 /home/saraj/Desktop/glibc_modified/build/libc_pic.a(stpcpy-avx2-rtm.os)
 .note.GNU-stack
                0x0000000000000000        0x0 /home/saraj/Desktop/glibc_modified/build/libc_pic.a(stpcpy-evex.os)
 .note.GNU-stack
                0x0000000000000000        0x0 /home/saraj/Desktop/glibc_modified/build/libc_pic.a(stpcpy-sse2.os)
 .note.GNU-stack
                0x0000000000000000        0x0 /home/saraj/Desktop/glibc_modified/build/libc_pic.a(stpcpy-sse2-unaligned.os)
 .note.GNU-stack
                0x0000000000000000        0x0 /home/saraj/Desktop/glibc_modified/build/libc_pic.a(strchr-avx2.os)
 .note.GNU-stack
                0x0000000000000000        0x0 /home/saraj/Desktop/glibc_modified/build/libc_pic.a(strchr-avx2-rtm.os)
 .note.GNU-stack
                0x0000000000000000        0x0 /home/saraj/Desktop/glibc_modified/build/libc_pic.a(strchr-evex.os)
 .note.GNU-stack
                0x0000000000000000        0x0 /home/saraj/Desktop/glibc_modified/build/libc_pic.a(strchr-sse2.os)
 .note.GNU-stack
                0x0000000000000000        0x0 /home/saraj/Desktop/glibc_modified/build/libc_pic.a(strchr-sse2-no-bsf.os)
 .note.GNU-stack
                0x0000000000000000        0x0 /home/saraj/Desktop/glibc_modified/build/libc_pic.a(strcmp-avx2.os)
 .note.GNU-stack
                0x0000000000000000        0x0 /home/saraj/Desktop/glibc_modified/build/libc_pic.a(strcmp-avx2-rtm.os)
 .note.GNU-stack
                0x0000000000000000        0x0 /home/saraj/Desktop/glibc_modified/build/libc_pic.a(strcmp-evex.os)
 .note.GNU-stack
                0x0000000000000000        0x0 /home/saraj/Desktop/glibc_modified/build/libc_pic.a(strcmp-sse2.os)
 .note.GNU-stack
                0x0000000000000000        0x0 /home/saraj/Desktop/glibc_modified/build/libc_pic.a(strcmp-sse2-unaligned.os)
 .note.GNU-stack
                0x0000000000000000        0x0 /home/saraj/Desktop/glibc_modified/build/libc_pic.a(strcmp-sse4_2.os)
 .note.GNU-stack
                0x0000000000000000        0x0 /home/saraj/Desktop/glibc_modified/build/libc_pic.a(strcspn-sse4.os)
 .note.GNU-stack
                0x0000000000000000        0x0 /home/saraj/Desktop/glibc_modified/build/libc_pic.a(strlen-avx2.os)
 .note.GNU-stack
                0x0000000000000000        0x0 /home/saraj/Desktop/glibc_modified/build/libc_pic.a(strlen-avx2-rtm.os)
 .note.GNU-stack
                0x0000000000000000        0x0 /home/saraj/Desktop/glibc_modified/build/libc_pic.a(strlen-evex.os)
 .note.GNU-stack
                0x0000000000000000        0x0 /home/saraj/Desktop/glibc_modified/build/libc_pic.a(strlen-sse2.os)
 .note.GNU-stack
                0x0000000000000000        0x0 /home/saraj/Desktop/glibc_modified/build/libc_pic.a(strncmp-avx2.os)
 .note.GNU-stack
                0x0000000000000000        0x0 /home/saraj/Desktop/glibc_modified/build/libc_pic.a(strncmp-avx2-rtm.os)
 .note.GNU-stack
                0x0000000000000000        0x0 /home/saraj/Desktop/glibc_modified/build/libc_pic.a(strncmp-evex.os)
 .note.GNU-stack
                0x0000000000000000        0x0 /home/saraj/Desktop/glibc_modified/build/libc_pic.a(strncmp-sse2.os)
 .note.GNU-stack
                0x0000000000000000        0x0 /home/saraj/Desktop/glibc_modified/build/libc_pic.a(strncmp-sse4_2.os)
 .note.GNU-stack
                0x0000000000000000        0x0 /home/saraj/Desktop/glibc_modified/build/libc_pic.a(strnlen-avx2.os)
 .note.GNU-stack
                0x0000000000000000        0x0 /home/saraj/Desktop/glibc_modified/build/libc_pic.a(strnlen-avx2-rtm.os)
 .note.GNU-stack
                0x0000000000000000        0x0 /home/saraj/Desktop/glibc_modified/build/libc_pic.a(strnlen-evex.os)
 .note.GNU-stack
                0x0000000000000000        0x0 /home/saraj/Desktop/glibc_modified/build/libc_pic.a(strnlen-sse2.os)
 .note.GNU-stack
                0x0000000000000000        0x0 /home/saraj/Desktop/glibc_modified/build/libc_pic.a(varshift.os)
 .note.GNU-stack
                0x0000000000000000        0x0 /home/saraj/Desktop/glibc_modified/build/libc_pic.a(strcspn-generic.os)
 .note.GNU-stack
                0x0000000000000000        0x0 /home/saraj/Desktop/glibc_modified/build/libc_pic.a(cacheinfo.os)
 .note.GNU-stack
                0x0000000000000000        0x0 /home/saraj/Desktop/glibc_modified/build/libc_pic.a(closedir.os)
 .note.GNU-stack
                0x0000000000000000        0x0 /home/saraj/Desktop/glibc_modified/build/libc_pic.a(fdopendir.os)
 .note.GNU-stack
                0x0000000000000000        0x0 /home/saraj/Desktop/glibc_modified/build/libc_pic.a(readdir64.os)
 .note.GNU-stack
                0x0000000000000000        0x0 /home/saraj/Desktop/glibc_modified/build/libc_pic.a(rewinddir.os)
 .note.GNU-stack
                0x0000000000000000        0x0 /home/saraj/Desktop/glibc_modified/build/libc_pic.a(_exit.os)
 .note.GNU-stack
                0x0000000000000000        0x0 /home/saraj/Desktop/glibc_modified/build/libc_pic.a(getpid.os)
 .note.GNU-stack
                0x0000000000000000        0x0 /home/saraj/Desktop/glibc_modified/build/libc_pic.a(uname.os)
 .note.GNU-stack
                0x0000000000000000        0x0 /home/saraj/Desktop/glibc_modified/build/libc_pic.a(environ.os)
 .note.GNU-stack
                0x0000000000000000        0x0 /home/saraj/Desktop/glibc_modified/build/libc_pic.a(access.os)
 .note.GNU-stack
                0x0000000000000000        0x0 /home/saraj/Desktop/glibc_modified/build/libc_pic.a(fstat64.os)
 .note.GNU-stack
                0x0000000000000000        0x0 /home/saraj/Desktop/glibc_modified/build/libc_pic.a(fstatat64.os)
 .note.GNU-stack
                0x0000000000000000        0x0 /home/saraj/Desktop/glibc_modified/build/libc_pic.a(lseek64.os)
 .note.GNU-stack
                0x0000000000000000        0x0 /home/saraj/Desktop/glibc_modified/build/libc_pic.a(lstat64.os)
 .note.GNU-stack
                0x0000000000000000        0x0 /home/saraj/Desktop/glibc_modified/build/libc_pic.a(openat64.os)
 .note.GNU-stack
                0x0000000000000000        0x0 /home/saraj/Desktop/glibc_modified/build/libc_pic.a(stat64.os)
 .note.GNU-stack
                0x0000000000000000        0x0 /home/saraj/Desktop/glibc_modified/build/libc_pic.a(close_nocancel.os)
 .note.GNU-stack
                0x0000000000000000        0x0 /home/saraj/Desktop/glibc_modified/build/libc_pic.a(close_nocancel_nostatus.os)
 .note.GNU-stack
                0x0000000000000000        0x0 /home/saraj/Desktop/glibc_modified/build/libc_pic.a(fcntl_nocancel.os)
 .note.GNU-stack
                0x0000000000000000        0x0 /home/saraj/Desktop/glibc_modified/build/libc_pic.a(open64_nocancel.os)
 .note.GNU-stack
                0x0000000000000000        0x0 /home/saraj/Desktop/glibc_modified/build/libc_pic.a(pread64_nocancel.os)
 .note.GNU-stack
                0x0000000000000000        0x0 /home/saraj/Desktop/glibc_modified/build/libc_pic.a(read_nocancel.os)
 .note.GNU-stack
                0x0000000000000000        0x0 /home/saraj/Desktop/glibc_modified/build/libc_pic.a(write_nocancel.os)
 .note.GNU-stack
                0x0000000000000000        0x0 /home/saraj/Desktop/glibc_modified/build/libc_pic.a(fd_to_filename.os)
 .note.GNU-stack
                0x0000000000000000        0x0 /home/saraj/Desktop/glibc_modified/build/libc_pic.a(mmap64.os)
 .note.GNU-stack
                0x0000000000000000        0x0 /home/saraj/Desktop/glibc_modified/build/libc_pic.a(mprotect.os)
 .note.GNU-stack
                0x0000000000000000        0x0 /home/saraj/Desktop/glibc_modified/build/libc_pic.a(munmap.os)
 .note.GNU-stack
                0x0000000000000000        0x0 /home/saraj/Desktop/glibc_modified/build/libc_pic.a(setvmaname.os)
 .note.GNU-stack
                0x0000000000000000        0x0 /home/saraj/Desktop/glibc_modified/build/libc_pic.a(prof-freq.os)
 .note.GNU-stack
                0x0000000000000000        0x0 /home/saraj/Desktop/glibc_modified/build/libc_pic.a(profil.os)
 .note.GNU-stack
                0x0000000000000000        0x0 /home/saraj/Desktop/glibc_modified/build/libc_pic.a(dl-addr-obj.os)
 .note.GNU-stack
                0x0000000000000000        0x0 /home/saraj/Desktop/glibc_modified/build/libc_pic.a(libc_sigaction.os)
 .note.GNU-stack
                0x0000000000000000        0x0 /home/saraj/Desktop/glibc_modified/build/libc_pic.a(errname.os)
 .note.GNU-stack
                0x0000000000000000        0x0 /home/saraj/Desktop/glibc_modified/build/libc_pic.a(strchrnul.os)
 .note.GNU-stack
                0x0000000000000000        0x0 /home/saraj/Desktop/glibc_modified/build/libc_pic.a(strchrnul-avx2.os)
 .note.GNU-stack
                0x0000000000000000        0x0 /home/saraj/Desktop/glibc_modified/build/libc_pic.a(strchrnul-avx2-rtm.os)
 .note.GNU-stack
                0x0000000000000000        0x0 /home/saraj/Desktop/glibc_modified/build/libc_pic.a(strchrnul-evex.os)
 .note.GNU-stack
                0x0000000000000000        0x0 /home/saraj/Desktop/glibc_modified/build/libc_pic.a(strchrnul-sse2.os)
 .note.GNU-stack
                0x0000000000000000        0x0 /home/saraj/Desktop/glibc_modified/build/libc_pic.a(setitimer.os)
 .note.GNU-stack
                0x0000000000000000        0x0 /home/saraj/Desktop/glibc_modified/build/libc_pic.a(getdents64.os)

.gnu.build.attributes
 *(.gnu.build.attributes)

.debug
 *(.debug)

.line
 *(.line)

.debug_srcinfo
 *(.debug_srcinfo)

.debug_sfnames
 *(.debug_sfnames)

.debug_aranges  0x0000000000000000     0x23e0
 *(.debug_aranges)
 .debug_aranges
                0x0000000000000000      0xda0 /home/saraj/Desktop/glibc_modified/build/elf/dl-allobjs.os
 .debug_aranges
                0x0000000000000da0       0x30 /home/saraj/Desktop/glibc_modified/build/libc_pic.a(check_fds.os)
 .debug_aranges
                0x0000000000000dd0       0x20 /home/saraj/Desktop/glibc_modified/build/libc_pic.a(errno.os)
 .debug_aranges
                0x0000000000000df0       0x30 /home/saraj/Desktop/glibc_modified/build/libc_pic.a(setjmp.os)
 .debug_aranges
                0x0000000000000e20       0x30 /home/saraj/Desktop/glibc_modified/build/libc_pic.a(__longjmp.os)
 .debug_aranges
                0x0000000000000e50       0x30 /home/saraj/Desktop/glibc_modified/build/libc_pic.a(getenv.os)
 .debug_aranges
                0x0000000000000e80       0x30 /home/saraj/Desktop/glibc_modified/build/libc_pic.a(_fitoa_word.os)
 .debug_aranges
                0x0000000000000eb0       0x20 /home/saraj/Desktop/glibc_modified/build/libc_pic.a(itoa-udigits.os)
 .debug_aranges
                0x0000000000000ed0       0x30 /home/saraj/Desktop/glibc_modified/build/libc_pic.a(lowlevellock.os)
 .debug_aranges
                0x0000000000000f00       0x30 /home/saraj/Desktop/glibc_modified/build/libc_pic.a(scratch_buffer_set_array_size.os)
 .debug_aranges
                0x0000000000000f30       0x30 /home/saraj/Desktop/glibc_modified/build/libc_pic.a(memchr.os)
 .debug_aranges
                0x0000000000000f60       0x30 /home/saraj/Desktop/glibc_modified/build/libc_pic.a(memcmp.os)
 .debug_aranges
                0x0000000000000f90       0x30 /home/saraj/Desktop/glibc_modified/build/libc_pic.a(memcpy.os)
 .debug_aranges
                0x0000000000000fc0       0x30 /home/saraj/Desktop/glibc_modified/build/libc_pic.a(memmove.os)
 .debug_aranges
                0x0000000000000ff0       0x30 /home/saraj/Desktop/glibc_modified/build/libc_pic.a(mempcpy.os)
 .debug_aranges
                0x0000000000001020       0x30 /home/saraj/Desktop/glibc_modified/build/libc_pic.a(memset.os)
 .debug_aranges
                0x0000000000001050       0x30 /home/saraj/Desktop/glibc_modified/build/libc_pic.a(stpcpy.os)
 .debug_aranges
                0x0000000000001080       0x30 /home/saraj/Desktop/glibc_modified/build/libc_pic.a(strchr.os)
 .debug_aranges
                0x00000000000010b0       0x30 /home/saraj/Desktop/glibc_modified/build/libc_pic.a(strcmp.os)
 .debug_aranges
                0x00000000000010e0       0x30 /home/saraj/Desktop/glibc_modified/build/libc_pic.a(strcspn.os)
 .debug_aranges
                0x0000000000001110       0x30 /home/saraj/Desktop/glibc_modified/build/libc_pic.a(strdup.os)
 .debug_aranges
                0x0000000000001140       0x30 /home/saraj/Desktop/glibc_modified/build/libc_pic.a(strerrorname_np.os)
 .debug_aranges
                0x0000000000001170       0x30 /home/saraj/Desktop/glibc_modified/build/libc_pic.a(strlen.os)
 .debug_aranges
                0x00000000000011a0       0x30 /home/saraj/Desktop/glibc_modified/build/libc_pic.a(strncmp.os)
 .debug_aranges
                0x00000000000011d0       0x30 /home/saraj/Desktop/glibc_modified/build/libc_pic.a(strnlen.os)
 .debug_aranges
                0x0000000000001200       0x30 /home/saraj/Desktop/glibc_modified/build/libc_pic.a(memchr-avx2.os)
 .debug_aranges
                0x0000000000001230       0x30 /home/saraj/Desktop/glibc_modified/build/libc_pic.a(memchr-avx2-rtm.os)
 .debug_aranges
                0x0000000000001260       0x30 /home/saraj/Desktop/glibc_modified/build/libc_pic.a(memchr-evex.os)
 .debug_aranges
                0x0000000000001290       0x30 /home/saraj/Desktop/glibc_modified/build/libc_pic.a(memchr-evex-rtm.os)
 .debug_aranges
                0x00000000000012c0       0x30 /home/saraj/Desktop/glibc_modified/build/libc_pic.a(memchr-sse2.os)
 .debug_aranges
                0x00000000000012f0       0x30 /home/saraj/Desktop/glibc_modified/build/libc_pic.a(memcmp-avx2-movbe.os)
 .debug_aranges
                0x0000000000001320       0x30 /home/saraj/Desktop/glibc_modified/build/libc_pic.a(memcmp-avx2-movbe-rtm.os)
 .debug_aranges
                0x0000000000001350       0x30 /home/saraj/Desktop/glibc_modified/build/libc_pic.a(memcmp-evex-movbe.os)
 .debug_aranges
                0x0000000000001380       0x30 /home/saraj/Desktop/glibc_modified/build/libc_pic.a(memcmp-sse2.os)
 .debug_aranges
                0x00000000000013b0       0x30 /home/saraj/Desktop/glibc_modified/build/libc_pic.a(memmove-avx-unaligned-erms.os)
 .debug_aranges
                0x00000000000013e0       0x30 /home/saraj/Desktop/glibc_modified/build/libc_pic.a(memmove-avx-unaligned-erms-rtm.os)
 .debug_aranges
                0x0000000000001410       0x30 /home/saraj/Desktop/glibc_modified/build/libc_pic.a(memmove-avx512-no-vzeroupper.os)
 .debug_aranges
                0x0000000000001440       0x30 /home/saraj/Desktop/glibc_modified/build/libc_pic.a(memmove-avx512-unaligned-erms.os)
 .debug_aranges
                0x0000000000001470       0x30 /home/saraj/Desktop/glibc_modified/build/libc_pic.a(memmove-erms.os)
 .debug_aranges
                0x00000000000014a0       0x30 /home/saraj/Desktop/glibc_modified/build/libc_pic.a(memmove-evex-unaligned-erms.os)
 .debug_aranges
                0x00000000000014d0       0x30 /home/saraj/Desktop/glibc_modified/build/libc_pic.a(memmove-sse2-unaligned-erms.os)
 .debug_aranges
                0x0000000000001500       0x30 /home/saraj/Desktop/glibc_modified/build/libc_pic.a(memmove-ssse3.os)
 .debug_aranges
                0x0000000000001530       0x30 /home/saraj/Desktop/glibc_modified/build/libc_pic.a(memset-avx2-unaligned-erms.os)
 .debug_aranges
                0x0000000000001560       0x30 /home/saraj/Desktop/glibc_modified/build/libc_pic.a(memset-avx2-unaligned-erms-rtm.os)
 .debug_aranges
                0x0000000000001590       0x30 /home/saraj/Desktop/glibc_modified/build/libc_pic.a(memset-avx512-no-vzeroupper.os)
 .debug_aranges
                0x00000000000015c0       0x30 /home/saraj/Desktop/glibc_modified/build/libc_pic.a(memset-avx512-unaligned-erms.os)
 .debug_aranges
                0x00000000000015f0       0x30 /home/saraj/Desktop/glibc_modified/build/libc_pic.a(memset-erms.os)
 .debug_aranges
                0x0000000000001620       0x30 /home/saraj/Desktop/glibc_modified/build/libc_pic.a(memset-evex-unaligned-erms.os)
 .debug_aranges
                0x0000000000001650       0x30 /home/saraj/Desktop/glibc_modified/build/libc_pic.a(memset-sse2-unaligned-erms.os)
 .debug_aranges
                0x0000000000001680       0x30 /home/saraj/Desktop/glibc_modified/build/libc_pic.a(stpcpy-avx2.os)
 .debug_aranges
                0x00000000000016b0       0x30 /home/saraj/Desktop/glibc_modified/build/libc_pic.a(stpcpy-avx2-rtm.os)
 .debug_aranges
                0x00000000000016e0       0x30 /home/saraj/Desktop/glibc_modified/build/libc_pic.a(stpcpy-evex.os)
 .debug_aranges
                0x0000000000001710       0x30 /home/saraj/Desktop/glibc_modified/build/libc_pic.a(stpcpy-sse2.os)
 .debug_aranges
                0x0000000000001740       0x30 /home/saraj/Desktop/glibc_modified/build/libc_pic.a(stpcpy-sse2-unaligned.os)
 .debug_aranges
                0x0000000000001770       0x30 /home/saraj/Desktop/glibc_modified/build/libc_pic.a(strchr-avx2.os)
 .debug_aranges
                0x00000000000017a0       0x30 /home/saraj/Desktop/glibc_modified/build/libc_pic.a(strchr-avx2-rtm.os)
 .debug_aranges
                0x00000000000017d0       0x30 /home/saraj/Desktop/glibc_modified/build/libc_pic.a(strchr-evex.os)
 .debug_aranges
                0x0000000000001800       0x30 /home/saraj/Desktop/glibc_modified/build/libc_pic.a(strchr-sse2.os)
 .debug_aranges
                0x0000000000001830       0x30 /home/saraj/Desktop/glibc_modified/build/libc_pic.a(strchr-sse2-no-bsf.os)
 .debug_aranges
                0x0000000000001860       0x30 /home/saraj/Desktop/glibc_modified/build/libc_pic.a(strcmp-avx2.os)
 .debug_aranges
                0x0000000000001890       0x30 /home/saraj/Desktop/glibc_modified/build/libc_pic.a(strcmp-avx2-rtm.os)
 .debug_aranges
                0x00000000000018c0       0x30 /home/saraj/Desktop/glibc_modified/build/libc_pic.a(strcmp-evex.os)
 .debug_aranges
                0x00000000000018f0       0x30 /home/saraj/Desktop/glibc_modified/build/libc_pic.a(strcmp-sse2.os)
 .debug_aranges
                0x0000000000001920       0x30 /home/saraj/Desktop/glibc_modified/build/libc_pic.a(strcmp-sse2-unaligned.os)
 .debug_aranges
                0x0000000000001950       0x30 /home/saraj/Desktop/glibc_modified/build/libc_pic.a(strcmp-sse4_2.os)
 .debug_aranges
                0x0000000000001980       0x30 /home/saraj/Desktop/glibc_modified/build/libc_pic.a(strcspn-sse4.os)
 .debug_aranges
                0x00000000000019b0       0x30 /home/saraj/Desktop/glibc_modified/build/libc_pic.a(strlen-avx2.os)
 .debug_aranges
                0x00000000000019e0       0x30 /home/saraj/Desktop/glibc_modified/build/libc_pic.a(strlen-avx2-rtm.os)
 .debug_aranges
                0x0000000000001a10       0x30 /home/saraj/Desktop/glibc_modified/build/libc_pic.a(strlen-evex.os)
 .debug_aranges
                0x0000000000001a40       0x30 /home/saraj/Desktop/glibc_modified/build/libc_pic.a(strlen-sse2.os)
 .debug_aranges
                0x0000000000001a70       0x30 /home/saraj/Desktop/glibc_modified/build/libc_pic.a(strncmp-avx2.os)
 .debug_aranges
                0x0000000000001aa0       0x30 /home/saraj/Desktop/glibc_modified/build/libc_pic.a(strncmp-avx2-rtm.os)
 .debug_aranges
                0x0000000000001ad0       0x30 /home/saraj/Desktop/glibc_modified/build/libc_pic.a(strncmp-evex.os)
 .debug_aranges
                0x0000000000001b00       0x30 /home/saraj/Desktop/glibc_modified/build/libc_pic.a(strncmp-sse2.os)
 .debug_aranges
                0x0000000000001b30       0x30 /home/saraj/Desktop/glibc_modified/build/libc_pic.a(strncmp-sse4_2.os)
 .debug_aranges
                0x0000000000001b60       0x30 /home/saraj/Desktop/glibc_modified/build/libc_pic.a(strnlen-avx2.os)
 .debug_aranges
                0x0000000000001b90       0x30 /home/saraj/Desktop/glibc_modified/build/libc_pic.a(strnlen-avx2-rtm.os)
 .debug_aranges
                0x0000000000001bc0       0x30 /home/saraj/Desktop/glibc_modified/build/libc_pic.a(strnlen-evex.os)
 .debug_aranges
                0x0000000000001bf0       0x30 /home/saraj/Desktop/glibc_modified/build/libc_pic.a(strnlen-sse2.os)
 .debug_aranges
                0x0000000000001c20       0x20 /home/saraj/Desktop/glibc_modified/build/libc_pic.a(varshift.os)
 .debug_aranges
                0x0000000000001c40       0x30 /home/saraj/Desktop/glibc_modified/build/libc_pic.a(strcspn-generic.os)
 .debug_aranges
                0x0000000000001c70       0x30 /home/saraj/Desktop/glibc_modified/build/libc_pic.a(cacheinfo.os)
 .debug_aranges
                0x0000000000001ca0       0x30 /home/saraj/Desktop/glibc_modified/build/libc_pic.a(closedir.os)
 .debug_aranges
                0x0000000000001cd0       0x30 /home/saraj/Desktop/glibc_modified/build/libc_pic.a(fdopendir.os)
 .debug_aranges
                0x0000000000001d00       0x30 /home/saraj/Desktop/glibc_modified/build/libc_pic.a(readdir64.os)
 .debug_aranges
                0x0000000000001d30       0x30 /home/saraj/Desktop/glibc_modified/build/libc_pic.a(rewinddir.os)
 .debug_aranges
                0x0000000000001d60       0x30 /home/saraj/Desktop/glibc_modified/build/libc_pic.a(_exit.os)
 .debug_aranges
                0x0000000000001d90       0x30 /home/saraj/Desktop/glibc_modified/build/libc_pic.a(getpid.os)
 .debug_aranges
                0x0000000000001dc0       0x30 /home/saraj/Desktop/glibc_modified/build/libc_pic.a(uname.os)
 .debug_aranges
                0x0000000000001df0       0x20 /home/saraj/Desktop/glibc_modified/build/libc_pic.a(environ.os)
 .debug_aranges
                0x0000000000001e10       0x30 /home/saraj/Desktop/glibc_modified/build/libc_pic.a(access.os)
 .debug_aranges
                0x0000000000001e40       0x30 /home/saraj/Desktop/glibc_modified/build/libc_pic.a(fstat64.os)
 .debug_aranges
                0x0000000000001e70       0x30 /home/saraj/Desktop/glibc_modified/build/libc_pic.a(fstatat64.os)
 .debug_aranges
                0x0000000000001ea0       0x30 /home/saraj/Desktop/glibc_modified/build/libc_pic.a(lseek64.os)
 .debug_aranges
                0x0000000000001ed0       0x30 /home/saraj/Desktop/glibc_modified/build/libc_pic.a(lstat64.os)
 .debug_aranges
                0x0000000000001f00       0x30 /home/saraj/Desktop/glibc_modified/build/libc_pic.a(openat64.os)
 .debug_aranges
                0x0000000000001f30       0x30 /home/saraj/Desktop/glibc_modified/build/libc_pic.a(stat64.os)
 .debug_aranges
                0x0000000000001f60       0x30 /home/saraj/Desktop/glibc_modified/build/libc_pic.a(close_nocancel.os)
 .debug_aranges
                0x0000000000001f90       0x30 /home/saraj/Desktop/glibc_modified/build/libc_pic.a(close_nocancel_nostatus.os)
 .debug_aranges
                0x0000000000001fc0       0x30 /home/saraj/Desktop/glibc_modified/build/libc_pic.a(fcntl_nocancel.os)
 .debug_aranges
                0x0000000000001ff0       0x30 /home/saraj/Desktop/glibc_modified/build/libc_pic.a(open64_nocancel.os)
 .debug_aranges
                0x0000000000002020       0x30 /home/saraj/Desktop/glibc_modified/build/libc_pic.a(pread64_nocancel.os)
 .debug_aranges
                0x0000000000002050       0x30 /home/saraj/Desktop/glibc_modified/build/libc_pic.a(read_nocancel.os)
 .debug_aranges
                0x0000000000002080       0x30 /home/saraj/Desktop/glibc_modified/build/libc_pic.a(write_nocancel.os)
 .debug_aranges
                0x00000000000020b0       0x30 /home/saraj/Desktop/glibc_modified/build/libc_pic.a(fd_to_filename.os)
 .debug_aranges
                0x00000000000020e0       0x30 /home/saraj/Desktop/glibc_modified/build/libc_pic.a(mmap64.os)
 .debug_aranges
                0x0000000000002110       0x30 /home/saraj/Desktop/glibc_modified/build/libc_pic.a(mprotect.os)
 .debug_aranges
                0x0000000000002140       0x30 /home/saraj/Desktop/glibc_modified/build/libc_pic.a(munmap.os)
 .debug_aranges
                0x0000000000002170       0x30 /home/saraj/Desktop/glibc_modified/build/libc_pic.a(setvmaname.os)
 .debug_aranges
                0x00000000000021a0       0x30 /home/saraj/Desktop/glibc_modified/build/libc_pic.a(prof-freq.os)
 .debug_aranges
                0x00000000000021d0       0x30 /home/saraj/Desktop/glibc_modified/build/libc_pic.a(profil.os)
 .debug_aranges
                0x0000000000002200       0x30 /home/saraj/Desktop/glibc_modified/build/libc_pic.a(dl-addr-obj.os)
 .debug_aranges
                0x0000000000002230       0x30 /home/saraj/Desktop/glibc_modified/build/libc_pic.a(libc_sigaction.os)
 .debug_aranges
                0x0000000000002260       0x30 /home/saraj/Desktop/glibc_modified/build/libc_pic.a(errname.os)
 .debug_aranges
                0x0000000000002290       0x30 /home/saraj/Desktop/glibc_modified/build/libc_pic.a(strchrnul.os)
 .debug_aranges
                0x00000000000022c0       0x30 /home/saraj/Desktop/glibc_modified/build/libc_pic.a(strchrnul-avx2.os)
 .debug_aranges
                0x00000000000022f0       0x30 /home/saraj/Desktop/glibc_modified/build/libc_pic.a(strchrnul-avx2-rtm.os)
 .debug_aranges
                0x0000000000002320       0x30 /home/saraj/Desktop/glibc_modified/build/libc_pic.a(strchrnul-evex.os)
 .debug_aranges
                0x0000000000002350       0x30 /home/saraj/Desktop/glibc_modified/build/libc_pic.a(strchrnul-sse2.os)
 .debug_aranges
                0x0000000000002380       0x30 /home/saraj/Desktop/glibc_modified/build/libc_pic.a(setitimer.os)
 .debug_aranges
                0x00000000000023b0       0x30 /home/saraj/Desktop/glibc_modified/build/libc_pic.a(getdents64.os)

.debug_pubnames
 *(.debug_pubnames)

.debug_info     0x0000000000000000    0xd4ca7
 *(.debug_info)
 .debug_info    0x0000000000000000    0x9e494 /home/saraj/Desktop/glibc_modified/build/elf/dl-allobjs.os
 .debug_info    0x000000000009e494      0x817 /home/saraj/Desktop/glibc_modified/build/libc_pic.a(check_fds.os)
 .debug_info    0x000000000009ecab      0x3f2 /home/saraj/Desktop/glibc_modified/build/libc_pic.a(errno.os)
 .debug_info    0x000000000009f09d       0x48 /home/saraj/Desktop/glibc_modified/build/libc_pic.a(setjmp.os)
 .debug_info    0x000000000009f0e5       0x3b /home/saraj/Desktop/glibc_modified/build/libc_pic.a(__longjmp.os)
 .debug_info    0x000000000009f120      0x54e /home/saraj/Desktop/glibc_modified/build/libc_pic.a(getenv.os)
 .debug_info    0x000000000009f66e      0x1d0 /home/saraj/Desktop/glibc_modified/build/libc_pic.a(_fitoa_word.os)
 .debug_info    0x000000000009f83e       0x92 /home/saraj/Desktop/glibc_modified/build/libc_pic.a(itoa-udigits.os)
 .debug_info    0x000000000009f8d0      0x96e /home/saraj/Desktop/glibc_modified/build/libc_pic.a(lowlevellock.os)
 .debug_info    0x00000000000a023e      0x308 /home/saraj/Desktop/glibc_modified/build/libc_pic.a(scratch_buffer_set_array_size.os)
 .debug_info    0x00000000000a0546     0x2440 /home/saraj/Desktop/glibc_modified/build/libc_pic.a(memchr.os)
 .debug_info    0x00000000000a2986     0x2422 /home/saraj/Desktop/glibc_modified/build/libc_pic.a(memcmp.os)
 .debug_info    0x00000000000a4da8     0x253a /home/saraj/Desktop/glibc_modified/build/libc_pic.a(memcpy.os)
 .debug_info    0x00000000000a72e2     0x2530 /home/saraj/Desktop/glibc_modified/build/libc_pic.a(memmove.os)
 .debug_info    0x00000000000a9812     0x253a /home/saraj/Desktop/glibc_modified/build/libc_pic.a(mempcpy.os)
 .debug_info    0x00000000000abd4c     0x25c4 /home/saraj/Desktop/glibc_modified/build/libc_pic.a(memset.os)
 .debug_info    0x00000000000ae310     0x2431 /home/saraj/Desktop/glibc_modified/build/libc_pic.a(stpcpy.os)
 .debug_info    0x00000000000b0741     0x2422 /home/saraj/Desktop/glibc_modified/build/libc_pic.a(strchr.os)
 .debug_info    0x00000000000b2b63     0x2441 /home/saraj/Desktop/glibc_modified/build/libc_pic.a(strcmp.os)
 .debug_info    0x00000000000b4fa4     0x22d8 /home/saraj/Desktop/glibc_modified/build/libc_pic.a(strcspn.os)
 .debug_info    0x00000000000b727c      0x1a6 /home/saraj/Desktop/glibc_modified/build/libc_pic.a(strdup.os)
 .debug_info    0x00000000000b7422       0xd7 /home/saraj/Desktop/glibc_modified/build/libc_pic.a(strerrorname_np.os)
 .debug_info    0x00000000000b74f9     0x23f0 /home/saraj/Desktop/glibc_modified/build/libc_pic.a(strlen.os)
 .debug_info    0x00000000000b98e9     0x2440 /home/saraj/Desktop/glibc_modified/build/libc_pic.a(strncmp.os)
 .debug_info    0x00000000000bbd29     0x2409 /home/saraj/Desktop/glibc_modified/build/libc_pic.a(strnlen.os)
 .debug_info    0x00000000000be132       0x3b /home/saraj/Desktop/glibc_modified/build/libc_pic.a(memchr-avx2.os)
 .debug_info    0x00000000000be16d       0x3b /home/saraj/Desktop/glibc_modified/build/libc_pic.a(memchr-avx2-rtm.os)
 .debug_info    0x00000000000be1a8       0x3b /home/saraj/Desktop/glibc_modified/build/libc_pic.a(memchr-evex.os)
 .debug_info    0x00000000000be1e3       0x3b /home/saraj/Desktop/glibc_modified/build/libc_pic.a(memchr-evex-rtm.os)
 .debug_info    0x00000000000be21e       0x3b /home/saraj/Desktop/glibc_modified/build/libc_pic.a(memchr-sse2.os)
 .debug_info    0x00000000000be259       0x3b /home/saraj/Desktop/glibc_modified/build/libc_pic.a(memcmp-avx2-movbe.os)
 .debug_info    0x00000000000be294       0x3b /home/saraj/Desktop/glibc_modified/build/libc_pic.a(memcmp-avx2-movbe-rtm.os)
 .debug_info    0x00000000000be2cf       0x3b /home/saraj/Desktop/glibc_modified/build/libc_pic.a(memcmp-evex-movbe.os)
 .debug_info    0x00000000000be30a       0x3b /home/saraj/Desktop/glibc_modified/build/libc_pic.a(memcmp-sse2.os)
 .debug_info    0x00000000000be345       0xed /home/saraj/Desktop/glibc_modified/build/libc_pic.a(memmove-avx-unaligned-erms.os)
 .debug_info    0x00000000000be432       0xed /home/saraj/Desktop/glibc_modified/build/libc_pic.a(memmove-avx-unaligned-erms-rtm.os)
 .debug_info    0x00000000000be51f       0x8d /home/saraj/Desktop/glibc_modified/build/libc_pic.a(memmove-avx512-no-vzeroupper.os)
 .debug_info    0x00000000000be5ac       0xed /home/saraj/Desktop/glibc_modified/build/libc_pic.a(memmove-avx512-unaligned-erms.os)
 .debug_info    0x00000000000be699       0x8a /home/saraj/Desktop/glibc_modified/build/libc_pic.a(memmove-erms.os)
 .debug_info    0x00000000000be723       0xed /home/saraj/Desktop/glibc_modified/build/libc_pic.a(memmove-evex-unaligned-erms.os)
 .debug_info    0x00000000000be810       0xed /home/saraj/Desktop/glibc_modified/build/libc_pic.a(memmove-sse2-unaligned-erms.os)
 .debug_info    0x00000000000be8fd       0x8d /home/saraj/Desktop/glibc_modified/build/libc_pic.a(memmove-ssse3.os)
 .debug_info    0x00000000000be98a       0x8c /home/saraj/Desktop/glibc_modified/build/libc_pic.a(memset-avx2-unaligned-erms.os)
 .debug_info    0x00000000000bea16       0x8c /home/saraj/Desktop/glibc_modified/build/libc_pic.a(memset-avx2-unaligned-erms-rtm.os)
 .debug_info    0x00000000000beaa2       0x4a /home/saraj/Desktop/glibc_modified/build/libc_pic.a(memset-avx512-no-vzeroupper.os)
 .debug_info    0x00000000000beaec       0x8c /home/saraj/Desktop/glibc_modified/build/libc_pic.a(memset-avx512-unaligned-erms.os)
 .debug_info    0x00000000000beb78       0x48 /home/saraj/Desktop/glibc_modified/build/libc_pic.a(memset-erms.os)
 .debug_info    0x00000000000bebc0       0x8c /home/saraj/Desktop/glibc_modified/build/libc_pic.a(memset-evex-unaligned-erms.os)
 .debug_info    0x00000000000bec4c       0x8c /home/saraj/Desktop/glibc_modified/build/libc_pic.a(memset-sse2-unaligned-erms.os)
 .debug_info    0x00000000000becd8       0x3b /home/saraj/Desktop/glibc_modified/build/libc_pic.a(stpcpy-avx2.os)
 .debug_info    0x00000000000bed13       0x3b /home/saraj/Desktop/glibc_modified/build/libc_pic.a(stpcpy-avx2-rtm.os)
 .debug_info    0x00000000000bed4e       0x3b /home/saraj/Desktop/glibc_modified/build/libc_pic.a(stpcpy-evex.os)
 .debug_info    0x00000000000bed89       0x3b /home/saraj/Desktop/glibc_modified/build/libc_pic.a(stpcpy-sse2.os)
 .debug_info    0x00000000000bedc4       0x3b /home/saraj/Desktop/glibc_modified/build/libc_pic.a(stpcpy-sse2-unaligned.os)
 .debug_info    0x00000000000bedff       0x3b /home/saraj/Desktop/glibc_modified/build/libc_pic.a(strchr-avx2.os)
 .debug_info    0x00000000000bee3a       0x3b /home/saraj/Desktop/glibc_modified/build/libc_pic.a(strchr-avx2-rtm.os)
 .debug_info    0x00000000000bee75       0x3b /home/saraj/Desktop/glibc_modified/build/libc_pic.a(strchr-evex.os)
 .debug_info    0x00000000000beeb0       0x3b /home/saraj/Desktop/glibc_modified/build/libc_pic.a(strchr-sse2.os)
 .debug_info    0x00000000000beeeb       0x3b /home/saraj/Desktop/glibc_modified/build/libc_pic.a(strchr-sse2-no-bsf.os)
 .debug_info    0x00000000000bef26       0x3b /home/saraj/Desktop/glibc_modified/build/libc_pic.a(strcmp-avx2.os)
 .debug_info    0x00000000000bef61       0x3b /home/saraj/Desktop/glibc_modified/build/libc_pic.a(strcmp-avx2-rtm.os)
 .debug_info    0x00000000000bef9c       0x3b /home/saraj/Desktop/glibc_modified/build/libc_pic.a(strcmp-evex.os)
 .debug_info    0x00000000000befd7       0x3b /home/saraj/Desktop/glibc_modified/build/libc_pic.a(strcmp-sse2.os)
 .debug_info    0x00000000000bf012       0x3b /home/saraj/Desktop/glibc_modified/build/libc_pic.a(strcmp-sse2-unaligned.os)
 .debug_info    0x00000000000bf04d       0x3b /home/saraj/Desktop/glibc_modified/build/libc_pic.a(strcmp-sse4_2.os)
 .debug_info    0x00000000000bf088      0x97a /home/saraj/Desktop/glibc_modified/build/libc_pic.a(strcspn-sse4.os)
 .debug_info    0x00000000000bfa02       0x3b /home/saraj/Desktop/glibc_modified/build/libc_pic.a(strlen-avx2.os)
 .debug_info    0x00000000000bfa3d       0x3b /home/saraj/Desktop/glibc_modified/build/libc_pic.a(strlen-avx2-rtm.os)
 .debug_info    0x00000000000bfa78       0x3b /home/saraj/Desktop/glibc_modified/build/libc_pic.a(strlen-evex.os)
 .debug_info    0x00000000000bfab3       0x3b /home/saraj/Desktop/glibc_modified/build/libc_pic.a(strlen-sse2.os)
 .debug_info    0x00000000000bfaee       0x3b /home/saraj/Desktop/glibc_modified/build/libc_pic.a(strncmp-avx2.os)
 .debug_info    0x00000000000bfb29       0x3b /home/saraj/Desktop/glibc_modified/build/libc_pic.a(strncmp-avx2-rtm.os)
 .debug_info    0x00000000000bfb64       0x3b /home/saraj/Desktop/glibc_modified/build/libc_pic.a(strncmp-evex.os)
 .debug_info    0x00000000000bfb9f       0x3b /home/saraj/Desktop/glibc_modified/build/libc_pic.a(strncmp-sse2.os)
 .debug_info    0x00000000000bfbda       0x3b /home/saraj/Desktop/glibc_modified/build/libc_pic.a(strncmp-sse4_2.os)
 .debug_info    0x00000000000bfc15       0x3b /home/saraj/Desktop/glibc_modified/build/libc_pic.a(strnlen-avx2.os)
 .debug_info    0x00000000000bfc50       0x3b /home/saraj/Desktop/glibc_modified/build/libc_pic.a(strnlen-avx2-rtm.os)
 .debug_info    0x00000000000bfc8b       0x3b /home/saraj/Desktop/glibc_modified/build/libc_pic.a(strnlen-evex.os)
 .debug_info    0x00000000000bfcc6       0x3b /home/saraj/Desktop/glibc_modified/build/libc_pic.a(strnlen-sse2.os)
 .debug_info    0x00000000000bfd01       0xa7 /home/saraj/Desktop/glibc_modified/build/libc_pic.a(varshift.os)
 .debug_info    0x00000000000bfda8      0x555 /home/saraj/Desktop/glibc_modified/build/libc_pic.a(strcspn-generic.os)
 .debug_info    0x00000000000c02fd     0x2aea /home/saraj/Desktop/glibc_modified/build/libc_pic.a(cacheinfo.os)
 .debug_info    0x00000000000c2de7      0x548 /home/saraj/Desktop/glibc_modified/build/libc_pic.a(closedir.os)
 .debug_info    0x00000000000c332f      0x74f /home/saraj/Desktop/glibc_modified/build/libc_pic.a(fdopendir.os)
 .debug_info    0x00000000000c3a7e      0x72a /home/saraj/Desktop/glibc_modified/build/libc_pic.a(readdir64.os)
 .debug_info    0x00000000000c41a8      0x5c4 /home/saraj/Desktop/glibc_modified/build/libc_pic.a(rewinddir.os)
 .debug_info    0x00000000000c476c      0x45e /home/saraj/Desktop/glibc_modified/build/libc_pic.a(_exit.os)
 .debug_info    0x00000000000c4bca       0x6a /home/saraj/Desktop/glibc_modified/build/libc_pic.a(getpid.os)
 .debug_info    0x00000000000c4c34       0x6a /home/saraj/Desktop/glibc_modified/build/libc_pic.a(uname.os)
 .debug_info    0x00000000000c4c9e      0x4af /home/saraj/Desktop/glibc_modified/build/libc_pic.a(environ.os)
 .debug_info    0x00000000000c514d      0x49b /home/saraj/Desktop/glibc_modified/build/libc_pic.a(access.os)
 .debug_info    0x00000000000c55e8      0x626 /home/saraj/Desktop/glibc_modified/build/libc_pic.a(fstat64.os)
 .debug_info    0x00000000000c5c0e      0x76a /home/saraj/Desktop/glibc_modified/build/libc_pic.a(fstatat64.os)
 .debug_info    0x00000000000c6378      0x4d8 /home/saraj/Desktop/glibc_modified/build/libc_pic.a(lseek64.os)
 .debug_info    0x00000000000c6850      0x29a /home/saraj/Desktop/glibc_modified/build/libc_pic.a(lstat64.os)
 .debug_info    0x00000000000c6aea      0x559 /home/saraj/Desktop/glibc_modified/build/libc_pic.a(openat64.os)
 .debug_info    0x00000000000c7043      0x298 /home/saraj/Desktop/glibc_modified/build/libc_pic.a(stat64.os)
 .debug_info    0x00000000000c72db      0x46d /home/saraj/Desktop/glibc_modified/build/libc_pic.a(close_nocancel.os)
 .debug_info    0x00000000000c7748      0x444 /home/saraj/Desktop/glibc_modified/build/libc_pic.a(close_nocancel_nostatus.os)
 .debug_info    0x00000000000c7b8c      0x8dd /home/saraj/Desktop/glibc_modified/build/libc_pic.a(fcntl_nocancel.os)
 .debug_info    0x00000000000c8469      0x594 /home/saraj/Desktop/glibc_modified/build/libc_pic.a(open64_nocancel.os)
 .debug_info    0x00000000000c89fd      0x51e /home/saraj/Desktop/glibc_modified/build/libc_pic.a(pread64_nocancel.os)
 .debug_info    0x00000000000c8f1b      0x4e6 /home/saraj/Desktop/glibc_modified/build/libc_pic.a(read_nocancel.os)
 .debug_info    0x00000000000c9401      0x4ea /home/saraj/Desktop/glibc_modified/build/libc_pic.a(write_nocancel.os)
 .debug_info    0x00000000000c98eb      0x223 /home/saraj/Desktop/glibc_modified/build/libc_pic.a(fd_to_filename.os)
 .debug_info    0x00000000000c9b0e     0x26d0 /home/saraj/Desktop/glibc_modified/build/libc_pic.a(mmap64.os)
 .debug_info    0x00000000000cc1de       0x6a /home/saraj/Desktop/glibc_modified/build/libc_pic.a(mprotect.os)
 .debug_info    0x00000000000cc248       0x6a /home/saraj/Desktop/glibc_modified/build/libc_pic.a(munmap.os)
 .debug_info    0x00000000000cc2b2      0x8e4 /home/saraj/Desktop/glibc_modified/build/libc_pic.a(setvmaname.os)
 .debug_info    0x00000000000ccb96     0x21e8 /home/saraj/Desktop/glibc_modified/build/libc_pic.a(prof-freq.os)
 .debug_info    0x00000000000ced7e      0xc36 /home/saraj/Desktop/glibc_modified/build/libc_pic.a(profil.os)
 .debug_info    0x00000000000cf9b4      0xe33 /home/saraj/Desktop/glibc_modified/build/libc_pic.a(dl-addr-obj.os)
 .debug_info    0x00000000000d07e7      0x953 /home/saraj/Desktop/glibc_modified/build/libc_pic.a(libc_sigaction.os)
 .debug_info    0x00000000000d113a      0xc29 /home/saraj/Desktop/glibc_modified/build/libc_pic.a(errname.os)
 .debug_info    0x00000000000d1d63     0x2409 /home/saraj/Desktop/glibc_modified/build/libc_pic.a(strchrnul.os)
 .debug_info    0x00000000000d416c       0x3b /home/saraj/Desktop/glibc_modified/build/libc_pic.a(strchrnul-avx2.os)
 .debug_info    0x00000000000d41a7       0x3b /home/saraj/Desktop/glibc_modified/build/libc_pic.a(strchrnul-avx2-rtm.os)
 .debug_info    0x00000000000d41e2       0x3b /home/saraj/Desktop/glibc_modified/build/libc_pic.a(strchrnul-evex.os)
 .debug_info    0x00000000000d421d       0x3b /home/saraj/Desktop/glibc_modified/build/libc_pic.a(strchrnul-sse2.os)
 .debug_info    0x00000000000d4258      0x575 /home/saraj/Desktop/glibc_modified/build/libc_pic.a(setitimer.os)
 .debug_info    0x00000000000d47cd      0x4da /home/saraj/Desktop/glibc_modified/build/libc_pic.a(getdents64.os)

.debug_abbrev   0x0000000000000000    0x1ab38
 *(.debug_abbrev)
 .debug_abbrev  0x0000000000000000    0x12445 /home/saraj/Desktop/glibc_modified/build/elf/dl-allobjs.os
 .debug_abbrev  0x0000000000012445      0x20c /home/saraj/Desktop/glibc_modified/build/libc_pic.a(check_fds.os)
 .debug_abbrev  0x0000000000012651       0xfd /home/saraj/Desktop/glibc_modified/build/libc_pic.a(errno.os)
 .debug_abbrev  0x000000000001274e       0x28 /home/saraj/Desktop/glibc_modified/build/libc_pic.a(setjmp.os)
 .debug_abbrev  0x0000000000012776       0x28 /home/saraj/Desktop/glibc_modified/build/libc_pic.a(__longjmp.os)
 .debug_abbrev  0x000000000001279e      0x195 /home/saraj/Desktop/glibc_modified/build/libc_pic.a(getenv.os)
 .debug_abbrev  0x0000000000012933       0xfc /home/saraj/Desktop/glibc_modified/build/libc_pic.a(_fitoa_word.os)
 .debug_abbrev  0x0000000000012a2f       0x66 /home/saraj/Desktop/glibc_modified/build/libc_pic.a(itoa-udigits.os)
 .debug_abbrev  0x0000000000012a95      0x280 /home/saraj/Desktop/glibc_modified/build/libc_pic.a(lowlevellock.os)
 .debug_abbrev  0x0000000000012d15      0x21e /home/saraj/Desktop/glibc_modified/build/libc_pic.a(scratch_buffer_set_array_size.os)
 .debug_abbrev  0x0000000000012f33      0x3ae /home/saraj/Desktop/glibc_modified/build/libc_pic.a(memchr.os)
 .debug_abbrev  0x00000000000132e1      0x3ae /home/saraj/Desktop/glibc_modified/build/libc_pic.a(memcmp.os)
 .debug_abbrev  0x000000000001368f      0x3ae /home/saraj/Desktop/glibc_modified/build/libc_pic.a(memcpy.os)
 .debug_abbrev  0x0000000000013a3d      0x3ae /home/saraj/Desktop/glibc_modified/build/libc_pic.a(memmove.os)
 .debug_abbrev  0x0000000000013deb      0x3ae /home/saraj/Desktop/glibc_modified/build/libc_pic.a(mempcpy.os)
 .debug_abbrev  0x0000000000014199      0x41d /home/saraj/Desktop/glibc_modified/build/libc_pic.a(memset.os)
 .debug_abbrev  0x00000000000145b6      0x3ad /home/saraj/Desktop/glibc_modified/build/libc_pic.a(stpcpy.os)
 .debug_abbrev  0x0000000000014963      0x3ae /home/saraj/Desktop/glibc_modified/build/libc_pic.a(strchr.os)
 .debug_abbrev  0x0000000000014d11      0x3ad /home/saraj/Desktop/glibc_modified/build/libc_pic.a(strcmp.os)
 .debug_abbrev  0x00000000000150be      0x384 /home/saraj/Desktop/glibc_modified/build/libc_pic.a(strcspn.os)
 .debug_abbrev  0x0000000000015442      0x108 /home/saraj/Desktop/glibc_modified/build/libc_pic.a(strdup.os)
 .debug_abbrev  0x000000000001554a       0x9c /home/saraj/Desktop/glibc_modified/build/libc_pic.a(strerrorname_np.os)
 .debug_abbrev  0x00000000000155e6      0x3ae /home/saraj/Desktop/glibc_modified/build/libc_pic.a(strlen.os)
 .debug_abbrev  0x0000000000015994      0x3ae /home/saraj/Desktop/glibc_modified/build/libc_pic.a(strncmp.os)
 .debug_abbrev  0x0000000000015d42      0x3ae /home/saraj/Desktop/glibc_modified/build/libc_pic.a(strnlen.os)
 .debug_abbrev  0x00000000000160f0       0x28 /home/saraj/Desktop/glibc_modified/build/libc_pic.a(memchr-avx2.os)
 .debug_abbrev  0x0000000000016118       0x28 /home/saraj/Desktop/glibc_modified/build/libc_pic.a(memchr-avx2-rtm.os)
 .debug_abbrev  0x0000000000016140       0x28 /home/saraj/Desktop/glibc_modified/build/libc_pic.a(memchr-evex.os)
 .debug_abbrev  0x0000000000016168       0x28 /home/saraj/Desktop/glibc_modified/build/libc_pic.a(memchr-evex-rtm.os)
 .debug_abbrev  0x0000000000016190       0x28 /home/saraj/Desktop/glibc_modified/build/libc_pic.a(memchr-sse2.os)
 .debug_abbrev  0x00000000000161b8       0x28 /home/saraj/Desktop/glibc_modified/build/libc_pic.a(memcmp-avx2-movbe.os)
 .debug_abbrev  0x00000000000161e0       0x28 /home/saraj/Desktop/glibc_modified/build/libc_pic.a(memcmp-avx2-movbe-rtm.os)
 .debug_abbrev  0x0000000000016208       0x28 /home/saraj/Desktop/glibc_modified/build/libc_pic.a(memcmp-evex-movbe.os)
 .debug_abbrev  0x0000000000016230       0x28 /home/saraj/Desktop/glibc_modified/build/libc_pic.a(memcmp-sse2.os)
 .debug_abbrev  0x0000000000016258       0x28 /home/saraj/Desktop/glibc_modified/build/libc_pic.a(memmove-avx-unaligned-erms.os)
 .debug_abbrev  0x0000000000016280       0x28 /home/saraj/Desktop/glibc_modified/build/libc_pic.a(memmove-avx-unaligned-erms-rtm.os)
 .debug_abbrev  0x00000000000162a8       0x28 /home/saraj/Desktop/glibc_modified/build/libc_pic.a(memmove-avx512-no-vzeroupper.os)
 .debug_abbrev  0x00000000000162d0       0x28 /home/saraj/Desktop/glibc_modified/build/libc_pic.a(memmove-avx512-unaligned-erms.os)
 .debug_abbrev  0x00000000000162f8       0x28 /home/saraj/Desktop/glibc_modified/build/libc_pic.a(memmove-erms.os)
 .debug_abbrev  0x0000000000016320       0x28 /home/saraj/Desktop/glibc_modified/build/libc_pic.a(memmove-evex-unaligned-erms.os)
 .debug_abbrev  0x0000000000016348       0x28 /home/saraj/Desktop/glibc_modified/build/libc_pic.a(memmove-sse2-unaligned-erms.os)
 .debug_abbrev  0x0000000000016370       0x28 /home/saraj/Desktop/glibc_modified/build/libc_pic.a(memmove-ssse3.os)
 .debug_abbrev  0x0000000000016398       0x28 /home/saraj/Desktop/glibc_modified/build/libc_pic.a(memset-avx2-unaligned-erms.os)
 .debug_abbrev  0x00000000000163c0       0x28 /home/saraj/Desktop/glibc_modified/build/libc_pic.a(memset-avx2-unaligned-erms-rtm.os)
 .debug_abbrev  0x00000000000163e8       0x28 /home/saraj/Desktop/glibc_modified/build/libc_pic.a(memset-avx512-no-vzeroupper.os)
 .debug_abbrev  0x0000000000016410       0x28 /home/saraj/Desktop/glibc_modified/build/libc_pic.a(memset-avx512-unaligned-erms.os)
 .debug_abbrev  0x0000000000016438       0x28 /home/saraj/Desktop/glibc_modified/build/libc_pic.a(memset-erms.os)
 .debug_abbrev  0x0000000000016460       0x28 /home/saraj/Desktop/glibc_modified/build/libc_pic.a(memset-evex-unaligned-erms.os)
 .debug_abbrev  0x0000000000016488       0x28 /home/saraj/Desktop/glibc_modified/build/libc_pic.a(memset-sse2-unaligned-erms.os)
 .debug_abbrev  0x00000000000164b0       0x28 /home/saraj/Desktop/glibc_modified/build/libc_pic.a(stpcpy-avx2.os)
 .debug_abbrev  0x00000000000164d8       0x28 /home/saraj/Desktop/glibc_modified/build/libc_pic.a(stpcpy-avx2-rtm.os)
 .debug_abbrev  0x0000000000016500       0x28 /home/saraj/Desktop/glibc_modified/build/libc_pic.a(stpcpy-evex.os)
 .debug_abbrev  0x0000000000016528       0x28 /home/saraj/Desktop/glibc_modified/build/libc_pic.a(stpcpy-sse2.os)
 .debug_abbrev  0x0000000000016550       0x28 /home/saraj/Desktop/glibc_modified/build/libc_pic.a(stpcpy-sse2-unaligned.os)
 .debug_abbrev  0x0000000000016578       0x28 /home/saraj/Desktop/glibc_modified/build/libc_pic.a(strchr-avx2.os)
 .debug_abbrev  0x00000000000165a0       0x28 /home/saraj/Desktop/glibc_modified/build/libc_pic.a(strchr-avx2-rtm.os)
 .debug_abbrev  0x00000000000165c8       0x28 /home/saraj/Desktop/glibc_modified/build/libc_pic.a(strchr-evex.os)
 .debug_abbrev  0x00000000000165f0       0x28 /home/saraj/Desktop/glibc_modified/build/libc_pic.a(strchr-sse2.os)
 .debug_abbrev  0x0000000000016618       0x28 /home/saraj/Desktop/glibc_modified/build/libc_pic.a(strchr-sse2-no-bsf.os)
 .debug_abbrev  0x0000000000016640       0x28 /home/saraj/Desktop/glibc_modified/build/libc_pic.a(strcmp-avx2.os)
 .debug_abbrev  0x0000000000016668       0x28 /home/saraj/Desktop/glibc_modified/build/libc_pic.a(strcmp-avx2-rtm.os)
 .debug_abbrev  0x0000000000016690       0x28 /home/saraj/Desktop/glibc_modified/build/libc_pic.a(strcmp-evex.os)
 .debug_abbrev  0x00000000000166b8       0x28 /home/saraj/Desktop/glibc_modified/build/libc_pic.a(strcmp-sse2.os)
 .debug_abbrev  0x00000000000166e0       0x28 /home/saraj/Desktop/glibc_modified/build/libc_pic.a(strcmp-sse2-unaligned.os)
 .debug_abbrev  0x0000000000016708       0x28 /home/saraj/Desktop/glibc_modified/build/libc_pic.a(strcmp-sse4_2.os)
 .debug_abbrev  0x0000000000016730      0x261 /home/saraj/Desktop/glibc_modified/build/libc_pic.a(strcspn-sse4.os)
 .debug_abbrev  0x0000000000016991       0x28 /home/saraj/Desktop/glibc_modified/build/libc_pic.a(strlen-avx2.os)
 .debug_abbrev  0x00000000000169b9       0x28 /home/saraj/Desktop/glibc_modified/build/libc_pic.a(strlen-avx2-rtm.os)
 .debug_abbrev  0x00000000000169e1       0x28 /home/saraj/Desktop/glibc_modified/build/libc_pic.a(strlen-evex.os)
 .debug_abbrev  0x0000000000016a09       0x28 /home/saraj/Desktop/glibc_modified/build/libc_pic.a(strlen-sse2.os)
 .debug_abbrev  0x0000000000016a31       0x28 /home/saraj/Desktop/glibc_modified/build/libc_pic.a(strncmp-avx2.os)
 .debug_abbrev  0x0000000000016a59       0x28 /home/saraj/Desktop/glibc_modified/build/libc_pic.a(strncmp-avx2-rtm.os)
 .debug_abbrev  0x0000000000016a81       0x28 /home/saraj/Desktop/glibc_modified/build/libc_pic.a(strncmp-evex.os)
 .debug_abbrev  0x0000000000016aa9       0x28 /home/saraj/Desktop/glibc_modified/build/libc_pic.a(strncmp-sse2.os)
 .debug_abbrev  0x0000000000016ad1       0x28 /home/saraj/Desktop/glibc_modified/build/libc_pic.a(strncmp-sse4_2.os)
 .debug_abbrev  0x0000000000016af9       0x28 /home/saraj/Desktop/glibc_modified/build/libc_pic.a(strnlen-avx2.os)
 .debug_abbrev  0x0000000000016b21       0x28 /home/saraj/Desktop/glibc_modified/build/libc_pic.a(strnlen-avx2-rtm.os)
 .debug_abbrev  0x0000000000016b49       0x28 /home/saraj/Desktop/glibc_modified/build/libc_pic.a(strnlen-evex.os)
 .debug_abbrev  0x0000000000016b71       0x28 /home/saraj/Desktop/glibc_modified/build/libc_pic.a(strnlen-sse2.os)
 .debug_abbrev  0x0000000000016b99       0x64 /home/saraj/Desktop/glibc_modified/build/libc_pic.a(varshift.os)
 .debug_abbrev  0x0000000000016bfd      0x18a /home/saraj/Desktop/glibc_modified/build/libc_pic.a(strcspn-generic.os)
 .debug_abbrev  0x0000000000016d87      0x3e1 /home/saraj/Desktop/glibc_modified/build/libc_pic.a(cacheinfo.os)
 .debug_abbrev  0x0000000000017168      0x1d6 /home/saraj/Desktop/glibc_modified/build/libc_pic.a(closedir.os)
 .debug_abbrev  0x000000000001733e      0x1e5 /home/saraj/Desktop/glibc_modified/build/libc_pic.a(fdopendir.os)
 .debug_abbrev  0x0000000000017523      0x282 /home/saraj/Desktop/glibc_modified/build/libc_pic.a(readdir64.os)
 .debug_abbrev  0x00000000000177a5      0x1c9 /home/saraj/Desktop/glibc_modified/build/libc_pic.a(rewinddir.os)
 .debug_abbrev  0x000000000001796e      0x141 /home/saraj/Desktop/glibc_modified/build/libc_pic.a(_exit.os)
 .debug_abbrev  0x0000000000017aaf       0x28 /home/saraj/Desktop/glibc_modified/build/libc_pic.a(getpid.os)
 .debug_abbrev  0x0000000000017ad7       0x28 /home/saraj/Desktop/glibc_modified/build/libc_pic.a(uname.os)
 .debug_abbrev  0x0000000000017aff      0x123 /home/saraj/Desktop/glibc_modified/build/libc_pic.a(environ.os)
 .debug_abbrev  0x0000000000017c22      0x14e /home/saraj/Desktop/glibc_modified/build/libc_pic.a(access.os)
 .debug_abbrev  0x0000000000017d70      0x150 /home/saraj/Desktop/glibc_modified/build/libc_pic.a(fstat64.os)
 .debug_abbrev  0x0000000000017ec0      0x1fe /home/saraj/Desktop/glibc_modified/build/libc_pic.a(fstatat64.os)
 .debug_abbrev  0x00000000000180be      0x16f /home/saraj/Desktop/glibc_modified/build/libc_pic.a(lseek64.os)
 .debug_abbrev  0x000000000001822d       0xfa /home/saraj/Desktop/glibc_modified/build/libc_pic.a(lstat64.os)
 .debug_abbrev  0x0000000000018327      0x1a8 /home/saraj/Desktop/glibc_modified/build/libc_pic.a(openat64.os)
 .debug_abbrev  0x00000000000184cf       0xfa /home/saraj/Desktop/glibc_modified/build/libc_pic.a(stat64.os)
 .debug_abbrev  0x00000000000185c9      0x149 /home/saraj/Desktop/glibc_modified/build/libc_pic.a(close_nocancel.os)
 .debug_abbrev  0x0000000000018712      0x139 /home/saraj/Desktop/glibc_modified/build/libc_pic.a(close_nocancel_nostatus.os)
 .debug_abbrev  0x000000000001884b      0x264 /home/saraj/Desktop/glibc_modified/build/libc_pic.a(fcntl_nocancel.os)
 .debug_abbrev  0x0000000000018aaf      0x18d /home/saraj/Desktop/glibc_modified/build/libc_pic.a(open64_nocancel.os)
 .debug_abbrev  0x0000000000018c3c      0x162 /home/saraj/Desktop/glibc_modified/build/libc_pic.a(pread64_nocancel.os)
 .debug_abbrev  0x0000000000018d9e      0x169 /home/saraj/Desktop/glibc_modified/build/libc_pic.a(read_nocancel.os)
 .debug_abbrev  0x0000000000018f07      0x167 /home/saraj/Desktop/glibc_modified/build/libc_pic.a(write_nocancel.os)
 .debug_abbrev  0x000000000001906e      0x14a /home/saraj/Desktop/glibc_modified/build/libc_pic.a(fd_to_filename.os)
 .debug_abbrev  0x00000000000191b8      0x40b /home/saraj/Desktop/glibc_modified/build/libc_pic.a(mmap64.os)
 .debug_abbrev  0x00000000000195c3       0x28 /home/saraj/Desktop/glibc_modified/build/libc_pic.a(mprotect.os)
 .debug_abbrev  0x00000000000195eb       0x28 /home/saraj/Desktop/glibc_modified/build/libc_pic.a(munmap.os)
 .debug_abbrev  0x0000000000019613      0x240 /home/saraj/Desktop/glibc_modified/build/libc_pic.a(setvmaname.os)
 .debug_abbrev  0x0000000000019853      0x31d /home/saraj/Desktop/glibc_modified/build/libc_pic.a(prof-freq.os)
 .debug_abbrev  0x0000000000019b70      0x2fd /home/saraj/Desktop/glibc_modified/build/libc_pic.a(profil.os)
 .debug_abbrev  0x0000000000019e6d      0x218 /home/saraj/Desktop/glibc_modified/build/libc_pic.a(dl-addr-obj.os)
 .debug_abbrev  0x000000000001a085      0x20c /home/saraj/Desktop/glibc_modified/build/libc_pic.a(libc_sigaction.os)
 .debug_abbrev  0x000000000001a291      0x17a /home/saraj/Desktop/glibc_modified/build/libc_pic.a(errname.os)
 .debug_abbrev  0x000000000001a40b      0x3ae /home/saraj/Desktop/glibc_modified/build/libc_pic.a(strchrnul.os)
 .debug_abbrev  0x000000000001a7b9       0x28 /home/saraj/Desktop/glibc_modified/build/libc_pic.a(strchrnul-avx2.os)
 .debug_abbrev  0x000000000001a7e1       0x28 /home/saraj/Desktop/glibc_modified/build/libc_pic.a(strchrnul-avx2-rtm.os)
 .debug_abbrev  0x000000000001a809       0x28 /home/saraj/Desktop/glibc_modified/build/libc_pic.a(strchrnul-evex.os)
 .debug_abbrev  0x000000000001a831       0x28 /home/saraj/Desktop/glibc_modified/build/libc_pic.a(strchrnul-sse2.os)
 .debug_abbrev  0x000000000001a859      0x17f /home/saraj/Desktop/glibc_modified/build/libc_pic.a(setitimer.os)
 .debug_abbrev  0x000000000001a9d8      0x160 /home/saraj/Desktop/glibc_modified/build/libc_pic.a(getdents64.os)

.debug_line     0x0000000000000000    0x293e5
 *(.debug_line)
 .debug_line    0x0000000000000000    0x1ffd0 /home/saraj/Desktop/glibc_modified/build/elf/dl-allobjs.os
 .debug_line    0x000000000001ffd0      0x13a /home/saraj/Desktop/glibc_modified/build/libc_pic.a(check_fds.os)
 .debug_line    0x000000000002010a       0x68 /home/saraj/Desktop/glibc_modified/build/libc_pic.a(errno.os)
 .debug_line    0x0000000000020172       0x64 /home/saraj/Desktop/glibc_modified/build/libc_pic.a(setjmp.os)
 .debug_line    0x00000000000201d6       0x7d /home/saraj/Desktop/glibc_modified/build/libc_pic.a(__longjmp.os)
 .debug_line    0x0000000000020253      0x162 /home/saraj/Desktop/glibc_modified/build/libc_pic.a(getenv.os)
 .debug_line    0x00000000000203b5      0x174 /home/saraj/Desktop/glibc_modified/build/libc_pic.a(_fitoa_word.os)
 .debug_line    0x0000000000020529       0x3f /home/saraj/Desktop/glibc_modified/build/libc_pic.a(itoa-udigits.os)
 .debug_line    0x0000000000020568      0x1c9 /home/saraj/Desktop/glibc_modified/build/libc_pic.a(lowlevellock.os)
 .debug_line    0x0000000000020731      0x16d /home/saraj/Desktop/glibc_modified/build/libc_pic.a(scratch_buffer_set_array_size.os)
 .debug_line    0x000000000002089e      0x18d /home/saraj/Desktop/glibc_modified/build/libc_pic.a(memchr.os)
 .debug_line    0x0000000000020a2b      0x17b /home/saraj/Desktop/glibc_modified/build/libc_pic.a(memcmp.os)
 .debug_line    0x0000000000020ba6      0x1ce /home/saraj/Desktop/glibc_modified/build/libc_pic.a(memcpy.os)
 .debug_line    0x0000000000020d74      0x1ce /home/saraj/Desktop/glibc_modified/build/libc_pic.a(memmove.os)
 .debug_line    0x0000000000020f42      0x1ce /home/saraj/Desktop/glibc_modified/build/libc_pic.a(mempcpy.os)
 .debug_line    0x0000000000021110      0x1ea /home/saraj/Desktop/glibc_modified/build/libc_pic.a(memset.os)
 .debug_line    0x00000000000212fa      0x17f /home/saraj/Desktop/glibc_modified/build/libc_pic.a(stpcpy.os)
 .debug_line    0x0000000000021479      0x185 /home/saraj/Desktop/glibc_modified/build/libc_pic.a(strchr.os)
 .debug_line    0x00000000000215fe      0x190 /home/saraj/Desktop/glibc_modified/build/libc_pic.a(strcmp.os)
 .debug_line    0x000000000002178e      0x150 /home/saraj/Desktop/glibc_modified/build/libc_pic.a(strcspn.os)
 .debug_line    0x00000000000218de       0xa3 /home/saraj/Desktop/glibc_modified/build/libc_pic.a(strdup.os)
 .debug_line    0x0000000000021981       0x5d /home/saraj/Desktop/glibc_modified/build/libc_pic.a(strerrorname_np.os)
 .debug_line    0x00000000000219de      0x17d /home/saraj/Desktop/glibc_modified/build/libc_pic.a(strlen.os)
 .debug_line    0x0000000000021b5b      0x17d /home/saraj/Desktop/glibc_modified/build/libc_pic.a(strncmp.os)
 .debug_line    0x0000000000021cd8      0x17d /home/saraj/Desktop/glibc_modified/build/libc_pic.a(strnlen.os)
 .debug_line    0x0000000000021e55      0x102 /home/saraj/Desktop/glibc_modified/build/libc_pic.a(memchr-avx2.os)
 .debug_line    0x0000000000021f57      0x103 /home/saraj/Desktop/glibc_modified/build/libc_pic.a(memchr-avx2-rtm.os)
 .debug_line    0x000000000002205a      0x117 /home/saraj/Desktop/glibc_modified/build/libc_pic.a(memchr-evex.os)
 .debug_line    0x0000000000022171      0x110 /home/saraj/Desktop/glibc_modified/build/libc_pic.a(memchr-evex-rtm.os)
 .debug_line    0x0000000000022281      0x119 /home/saraj/Desktop/glibc_modified/build/libc_pic.a(memchr-sse2.os)
 .debug_line    0x000000000002239a      0x13f /home/saraj/Desktop/glibc_modified/build/libc_pic.a(memcmp-avx2-movbe.os)
 .debug_line    0x00000000000224d9      0x13f /home/saraj/Desktop/glibc_modified/build/libc_pic.a(memcmp-avx2-movbe-rtm.os)
 .debug_line    0x0000000000022618       0xfc /home/saraj/Desktop/glibc_modified/build/libc_pic.a(memcmp-evex-movbe.os)
 .debug_line    0x0000000000022714      0x139 /home/saraj/Desktop/glibc_modified/build/libc_pic.a(memcmp-sse2.os)
 .debug_line    0x000000000002284d      0x1ae /home/saraj/Desktop/glibc_modified/build/libc_pic.a(memmove-avx-unaligned-erms.os)
 .debug_line    0x00000000000229fb      0x1ae /home/saraj/Desktop/glibc_modified/build/libc_pic.a(memmove-avx-unaligned-erms-rtm.os)
 .debug_line    0x0000000000022ba9      0x198 /home/saraj/Desktop/glibc_modified/build/libc_pic.a(memmove-avx512-no-vzeroupper.os)
 .debug_line    0x0000000000022d41      0x1b7 /home/saraj/Desktop/glibc_modified/build/libc_pic.a(memmove-avx512-unaligned-erms.os)
 .debug_line    0x0000000000022ef8       0x6c /home/saraj/Desktop/glibc_modified/build/libc_pic.a(memmove-erms.os)
 .debug_line    0x0000000000022f64      0x1b8 /home/saraj/Desktop/glibc_modified/build/libc_pic.a(memmove-evex-unaligned-erms.os)
 .debug_line    0x000000000002311c      0x18e /home/saraj/Desktop/glibc_modified/build/libc_pic.a(memmove-sse2-unaligned-erms.os)
 .debug_line    0x00000000000232aa      0x171 /home/saraj/Desktop/glibc_modified/build/libc_pic.a(memmove-ssse3.os)
 .debug_line    0x000000000002341b       0xd8 /home/saraj/Desktop/glibc_modified/build/libc_pic.a(memset-avx2-unaligned-erms.os)
 .debug_line    0x00000000000234f3       0xd8 /home/saraj/Desktop/glibc_modified/build/libc_pic.a(memset-avx2-unaligned-erms-rtm.os)
 .debug_line    0x00000000000235cb       0xcd /home/saraj/Desktop/glibc_modified/build/libc_pic.a(memset-avx512-no-vzeroupper.os)
 .debug_line    0x0000000000023698       0xda /home/saraj/Desktop/glibc_modified/build/libc_pic.a(memset-avx512-unaligned-erms.os)
 .debug_line    0x0000000000023772       0x5a /home/saraj/Desktop/glibc_modified/build/libc_pic.a(memset-erms.os)
 .debug_line    0x00000000000237cc       0xd6 /home/saraj/Desktop/glibc_modified/build/libc_pic.a(memset-evex-unaligned-erms.os)
 .debug_line    0x00000000000238a2       0xd1 /home/saraj/Desktop/glibc_modified/build/libc_pic.a(memset-sse2-unaligned-erms.os)
 .debug_line    0x0000000000023973       0xdf /home/saraj/Desktop/glibc_modified/build/libc_pic.a(stpcpy-avx2.os)
 .debug_line    0x0000000000023a52       0xdf /home/saraj/Desktop/glibc_modified/build/libc_pic.a(stpcpy-avx2-rtm.os)
 .debug_line    0x0000000000023b31       0xea /home/saraj/Desktop/glibc_modified/build/libc_pic.a(stpcpy-evex.os)
 .debug_line    0x0000000000023c1b       0x96 /home/saraj/Desktop/glibc_modified/build/libc_pic.a(stpcpy-sse2.os)
 .debug_line    0x0000000000023cb1      0x1c9 /home/saraj/Desktop/glibc_modified/build/libc_pic.a(stpcpy-sse2-unaligned.os)
 .debug_line    0x0000000000023e7a       0xdf /home/saraj/Desktop/glibc_modified/build/libc_pic.a(strchr-avx2.os)
 .debug_line    0x0000000000023f59       0xe0 /home/saraj/Desktop/glibc_modified/build/libc_pic.a(strchr-avx2-rtm.os)
 .debug_line    0x0000000000024039       0xcf /home/saraj/Desktop/glibc_modified/build/libc_pic.a(strchr-evex.os)
 .debug_line    0x0000000000024108       0xd2 /home/saraj/Desktop/glibc_modified/build/libc_pic.a(strchr-sse2.os)
 .debug_line    0x00000000000241da       0xfb /home/saraj/Desktop/glibc_modified/build/libc_pic.a(strchr-sse2-no-bsf.os)
 .debug_line    0x00000000000242d5      0x1e4 /home/saraj/Desktop/glibc_modified/build/libc_pic.a(strcmp-avx2.os)
 .debug_line    0x00000000000244b9      0x1e4 /home/saraj/Desktop/glibc_modified/build/libc_pic.a(strcmp-avx2-rtm.os)
 .debug_line    0x000000000002469d      0x1e0 /home/saraj/Desktop/glibc_modified/build/libc_pic.a(strcmp-evex.os)
 .debug_line    0x000000000002487d      0x491 /home/saraj/Desktop/glibc_modified/build/libc_pic.a(strcmp-sse2.os)
 .debug_line    0x0000000000024d0e       0xf3 /home/saraj/Desktop/glibc_modified/build/libc_pic.a(strcmp-sse2-unaligned.os)
 .debug_line    0x0000000000024e01      0x30e /home/saraj/Desktop/glibc_modified/build/libc_pic.a(strcmp-sse4_2.os)
 .debug_line    0x000000000002510f      0x3bb /home/saraj/Desktop/glibc_modified/build/libc_pic.a(strcspn-sse4.os)
 .debug_line    0x00000000000254ca       0xc6 /home/saraj/Desktop/glibc_modified/build/libc_pic.a(strlen-avx2.os)
 .debug_line    0x0000000000025590       0xc5 /home/saraj/Desktop/glibc_modified/build/libc_pic.a(strlen-avx2-rtm.os)
 .debug_line    0x0000000000025655       0xa2 /home/saraj/Desktop/glibc_modified/build/libc_pic.a(strlen-evex.os)
 .debug_line    0x00000000000256f7       0x98 /home/saraj/Desktop/glibc_modified/build/libc_pic.a(strlen-sse2.os)
 .debug_line    0x000000000002578f      0x222 /home/saraj/Desktop/glibc_modified/build/libc_pic.a(strncmp-avx2.os)
 .debug_line    0x00000000000259b1      0x222 /home/saraj/Desktop/glibc_modified/build/libc_pic.a(strncmp-avx2-rtm.os)
 .debug_line    0x0000000000025bd3      0x21d /home/saraj/Desktop/glibc_modified/build/libc_pic.a(strncmp-evex.os)
 .debug_line    0x0000000000025df0      0x527 /home/saraj/Desktop/glibc_modified/build/libc_pic.a(strncmp-sse2.os)
 .debug_line    0x0000000000026317      0x38a /home/saraj/Desktop/glibc_modified/build/libc_pic.a(strncmp-sse4_2.os)
 .debug_line    0x00000000000266a1      0x121 /home/saraj/Desktop/glibc_modified/build/libc_pic.a(strnlen-avx2.os)
 .debug_line    0x00000000000267c2      0x123 /home/saraj/Desktop/glibc_modified/build/libc_pic.a(strnlen-avx2-rtm.os)
 .debug_line    0x00000000000268e5       0xf7 /home/saraj/Desktop/glibc_modified/build/libc_pic.a(strnlen-evex.os)
 .debug_line    0x00000000000269dc       0x9c /home/saraj/Desktop/glibc_modified/build/libc_pic.a(strnlen-sse2.os)
 .debug_line    0x0000000000026a78       0x4c /home/saraj/Desktop/glibc_modified/build/libc_pic.a(varshift.os)
 .debug_line    0x0000000000026ac4      0x1fa /home/saraj/Desktop/glibc_modified/build/libc_pic.a(strcspn-generic.os)
 .debug_line    0x0000000000026cbe      0x24b /home/saraj/Desktop/glibc_modified/build/libc_pic.a(cacheinfo.os)
 .debug_line    0x0000000000026f09       0xf1 /home/saraj/Desktop/glibc_modified/build/libc_pic.a(closedir.os)
 .debug_line    0x0000000000026ffa      0x142 /home/saraj/Desktop/glibc_modified/build/libc_pic.a(fdopendir.os)
 .debug_line    0x000000000002713c      0x1e1 /home/saraj/Desktop/glibc_modified/build/libc_pic.a(readdir64.os)
 .debug_line    0x000000000002731d      0x197 /home/saraj/Desktop/glibc_modified/build/libc_pic.a(rewinddir.os)
 .debug_line    0x00000000000274b4       0xb5 /home/saraj/Desktop/glibc_modified/build/libc_pic.a(_exit.os)
 .debug_line    0x0000000000027569       0x4f /home/saraj/Desktop/glibc_modified/build/libc_pic.a(getpid.os)
 .debug_line    0x00000000000275b8       0x50 /home/saraj/Desktop/glibc_modified/build/libc_pic.a(uname.os)
 .debug_line    0x0000000000027608       0x7a /home/saraj/Desktop/glibc_modified/build/libc_pic.a(environ.os)
 .debug_line    0x0000000000027682       0xb5 /home/saraj/Desktop/glibc_modified/build/libc_pic.a(access.os)
 .debug_line    0x0000000000027737       0xcf /home/saraj/Desktop/glibc_modified/build/libc_pic.a(fstat64.os)
 .debug_line    0x0000000000027806       0xf1 /home/saraj/Desktop/glibc_modified/build/libc_pic.a(fstatat64.os)
 .debug_line    0x00000000000278f7       0xc7 /home/saraj/Desktop/glibc_modified/build/libc_pic.a(lseek64.os)
 .debug_line    0x00000000000279be       0x81 /home/saraj/Desktop/glibc_modified/build/libc_pic.a(lstat64.os)
 .debug_line    0x0000000000027a3f       0xd5 /home/saraj/Desktop/glibc_modified/build/libc_pic.a(openat64.os)
 .debug_line    0x0000000000027b14       0x81 /home/saraj/Desktop/glibc_modified/build/libc_pic.a(stat64.os)
 .debug_line    0x0000000000027b95       0xb3 /home/saraj/Desktop/glibc_modified/build/libc_pic.a(close_nocancel.os)
 .debug_line    0x0000000000027c48       0x87 /home/saraj/Desktop/glibc_modified/build/libc_pic.a(close_nocancel_nostatus.os)
 .debug_line    0x0000000000027ccf      0x172 /home/saraj/Desktop/glibc_modified/build/libc_pic.a(fcntl_nocancel.os)
 .debug_line    0x0000000000027e41       0xf6 /home/saraj/Desktop/glibc_modified/build/libc_pic.a(open64_nocancel.os)
 .debug_line    0x0000000000027f37       0xd7 /home/saraj/Desktop/glibc_modified/build/libc_pic.a(pread64_nocancel.os)
 .debug_line    0x000000000002800e       0xce /home/saraj/Desktop/glibc_modified/build/libc_pic.a(read_nocancel.os)
 .debug_line    0x00000000000280dc       0xce /home/saraj/Desktop/glibc_modified/build/libc_pic.a(write_nocancel.os)
 .debug_line    0x00000000000281aa       0xbd /home/saraj/Desktop/glibc_modified/build/libc_pic.a(fd_to_filename.os)
 .debug_line    0x0000000000028267      0x1bf /home/saraj/Desktop/glibc_modified/build/libc_pic.a(mmap64.os)
 .debug_line    0x0000000000028426       0x50 /home/saraj/Desktop/glibc_modified/build/libc_pic.a(mprotect.os)
 .debug_line    0x0000000000028476       0x50 /home/saraj/Desktop/glibc_modified/build/libc_pic.a(munmap.os)
 .debug_line    0x00000000000284c6      0x1a7 /home/saraj/Desktop/glibc_modified/build/libc_pic.a(setvmaname.os)
 .debug_line    0x000000000002866d      0x133 /home/saraj/Desktop/glibc_modified/build/libc_pic.a(prof-freq.os)
 .debug_line    0x00000000000287a0      0x272 /home/saraj/Desktop/glibc_modified/build/libc_pic.a(profil.os)
 .debug_line    0x0000000000028a12      0x115 /home/saraj/Desktop/glibc_modified/build/libc_pic.a(dl-addr-obj.os)
 .debug_line    0x0000000000028b27      0x1cd /home/saraj/Desktop/glibc_modified/build/libc_pic.a(libc_sigaction.os)
 .debug_line    0x0000000000028cf4       0xa3 /home/saraj/Desktop/glibc_modified/build/libc_pic.a(errname.os)
 .debug_line    0x0000000000028d97      0x17d /home/saraj/Desktop/glibc_modified/build/libc_pic.a(strchrnul.os)
 .debug_line    0x0000000000028f14       0xce /home/saraj/Desktop/glibc_modified/build/libc_pic.a(strchrnul-avx2.os)
 .debug_line    0x0000000000028fe2       0xce /home/saraj/Desktop/glibc_modified/build/libc_pic.a(strchrnul-avx2-rtm.os)
 .debug_line    0x00000000000290b0       0xc4 /home/saraj/Desktop/glibc_modified/build/libc_pic.a(strchrnul-evex.os)
 .debug_line    0x0000000000029174       0xcc /home/saraj/Desktop/glibc_modified/build/libc_pic.a(strchrnul-sse2.os)
 .debug_line    0x0000000000029240       0xd4 /home/saraj/Desktop/glibc_modified/build/libc_pic.a(setitimer.os)
 .debug_line    0x0000000000029314       0xd1 /home/saraj/Desktop/glibc_modified/build/libc_pic.a(getdents64.os)

.debug_frame
 *(.debug_frame)

.debug_str      0x0000000000000000    0x89b3e
 *(.debug_str)
 .debug_str     0x0000000000000000    0x5e19f /home/saraj/Desktop/glibc_modified/build/elf/dl-allobjs.os
 .debug_str     0x000000000005e19f      0x548 /home/saraj/Desktop/glibc_modified/build/libc_pic.a(check_fds.os)
 .debug_str     0x000000000005e6e7      0x36d /home/saraj/Desktop/glibc_modified/build/libc_pic.a(errno.os)
 .debug_str     0x000000000005ea54       0x6e /home/saraj/Desktop/glibc_modified/build/libc_pic.a(setjmp.os)
 .debug_str     0x000000000005eac2       0x5e /home/saraj/Desktop/glibc_modified/build/libc_pic.a(__longjmp.os)
 .debug_str     0x000000000005eb20      0x403 /home/saraj/Desktop/glibc_modified/build/libc_pic.a(getenv.os)
 .debug_str     0x000000000005ef23      0x1c7 /home/saraj/Desktop/glibc_modified/build/libc_pic.a(_fitoa_word.os)
 .debug_str     0x000000000005f0ea      0x165 /home/saraj/Desktop/glibc_modified/build/libc_pic.a(itoa-udigits.os)
 .debug_str     0x000000000005f24f      0x4ea /home/saraj/Desktop/glibc_modified/build/libc_pic.a(lowlevellock.os)
 .debug_str     0x000000000005f739      0x2b7 /home/saraj/Desktop/glibc_modified/build/libc_pic.a(scratch_buffer_set_array_size.os)
 .debug_str     0x000000000005f9f0     0x1bde /home/saraj/Desktop/glibc_modified/build/libc_pic.a(memchr.os)
 .debug_str     0x00000000000615ce     0x1bde /home/saraj/Desktop/glibc_modified/build/libc_pic.a(memcmp.os)
 .debug_str     0x00000000000631ac     0x1ce2 /home/saraj/Desktop/glibc_modified/build/libc_pic.a(memcpy.os)
 .debug_str     0x0000000000064e8e     0x1cf2 /home/saraj/Desktop/glibc_modified/build/libc_pic.a(memmove.os)
 .debug_str     0x0000000000066b80     0x1ced /home/saraj/Desktop/glibc_modified/build/libc_pic.a(mempcpy.os)
 .debug_str     0x000000000006886d     0x1ce5 /home/saraj/Desktop/glibc_modified/build/libc_pic.a(memset.os)
 .debug_str     0x000000000006a552     0x1be6 /home/saraj/Desktop/glibc_modified/build/libc_pic.a(stpcpy.os)
 .debug_str     0x000000000006c138     0x1be1 /home/saraj/Desktop/glibc_modified/build/libc_pic.a(strchr.os)
 .debug_str     0x000000000006dd19     0x1bf3 /home/saraj/Desktop/glibc_modified/build/libc_pic.a(strcmp.os)
 .debug_str     0x000000000006f90c     0x179a /home/saraj/Desktop/glibc_modified/build/libc_pic.a(strcspn.os)
 .debug_str     0x00000000000710a6      0x1fc /home/saraj/Desktop/glibc_modified/build/libc_pic.a(strdup.os)
 .debug_str     0x00000000000712a2      0x194 /home/saraj/Desktop/glibc_modified/build/libc_pic.a(strerrorname_np.os)
 .debug_str     0x0000000000071436     0x1bcc /home/saraj/Desktop/glibc_modified/build/libc_pic.a(strlen.os)
 .debug_str     0x0000000000073002     0x1be2 /home/saraj/Desktop/glibc_modified/build/libc_pic.a(strncmp.os)
 .debug_str     0x0000000000074be4     0x1bd4 /home/saraj/Desktop/glibc_modified/build/libc_pic.a(strnlen.os)
 .debug_str     0x00000000000767b8       0x6e /home/saraj/Desktop/glibc_modified/build/libc_pic.a(memchr-avx2.os)
 .debug_str     0x0000000000076826       0x72 /home/saraj/Desktop/glibc_modified/build/libc_pic.a(memchr-avx2-rtm.os)
 .debug_str     0x0000000000076898       0x6e /home/saraj/Desktop/glibc_modified/build/libc_pic.a(memchr-evex.os)
 .debug_str     0x0000000000076906       0x72 /home/saraj/Desktop/glibc_modified/build/libc_pic.a(memchr-evex-rtm.os)
 .debug_str     0x0000000000076978       0x6e /home/saraj/Desktop/glibc_modified/build/libc_pic.a(memchr-sse2.os)
 .debug_str     0x00000000000769e6       0x7a /home/saraj/Desktop/glibc_modified/build/libc_pic.a(memcmp-avx2-movbe.os)
 .debug_str     0x0000000000076a60       0x7e /home/saraj/Desktop/glibc_modified/build/libc_pic.a(memcmp-avx2-movbe-rtm.os)
 .debug_str     0x0000000000076ade       0x7a /home/saraj/Desktop/glibc_modified/build/libc_pic.a(memcmp-evex-movbe.os)
 .debug_str     0x0000000000076b58       0x6e /home/saraj/Desktop/glibc_modified/build/libc_pic.a(memcmp-sse2.os)
 .debug_str     0x0000000000076bc6      0x1c1 /home/saraj/Desktop/glibc_modified/build/libc_pic.a(memmove-avx-unaligned-erms.os)
 .debug_str     0x0000000000076d87      0x1f1 /home/saraj/Desktop/glibc_modified/build/libc_pic.a(memmove-avx-unaligned-erms-rtm.os)
 .debug_str     0x0000000000076f78      0x135 /home/saraj/Desktop/glibc_modified/build/libc_pic.a(memmove-avx512-no-vzeroupper.os)
 .debug_str     0x00000000000770ad      0x1e5 /home/saraj/Desktop/glibc_modified/build/libc_pic.a(memmove-avx512-unaligned-erms.os)
 .debug_str     0x0000000000077292       0xc5 /home/saraj/Desktop/glibc_modified/build/libc_pic.a(memmove-erms.os)
 .debug_str     0x0000000000077357      0x1cd /home/saraj/Desktop/glibc_modified/build/libc_pic.a(memmove-evex-unaligned-erms.os)
 .debug_str     0x0000000000077524      0x1cd /home/saraj/Desktop/glibc_modified/build/libc_pic.a(memmove-sse2-unaligned-erms.os)
 .debug_str     0x00000000000776f1       0xcc /home/saraj/Desktop/glibc_modified/build/libc_pic.a(memmove-ssse3.os)
 .debug_str     0x00000000000777bd      0x116 /home/saraj/Desktop/glibc_modified/build/libc_pic.a(memset-avx2-unaligned-erms.os)
 .debug_str     0x00000000000778d3      0x12e /home/saraj/Desktop/glibc_modified/build/libc_pic.a(memset-avx2-unaligned-erms-rtm.os)
 .debug_str     0x0000000000077a01       0xb0 /home/saraj/Desktop/glibc_modified/build/libc_pic.a(memset-avx512-no-vzeroupper.os)
 .debug_str     0x0000000000077ab1      0x122 /home/saraj/Desktop/glibc_modified/build/libc_pic.a(memset-avx512-unaligned-erms.os)
 .debug_str     0x0000000000077bd3       0x80 /home/saraj/Desktop/glibc_modified/build/libc_pic.a(memset-erms.os)
 .debug_str     0x0000000000077c53      0x116 /home/saraj/Desktop/glibc_modified/build/libc_pic.a(memset-evex-unaligned-erms.os)
 .debug_str     0x0000000000077d69      0x116 /home/saraj/Desktop/glibc_modified/build/libc_pic.a(memset-sse2-unaligned-erms.os)
 .debug_str     0x0000000000077e7f       0x6e /home/saraj/Desktop/glibc_modified/build/libc_pic.a(stpcpy-avx2.os)
 .debug_str     0x0000000000077eed       0x72 /home/saraj/Desktop/glibc_modified/build/libc_pic.a(stpcpy-avx2-rtm.os)
 .debug_str     0x0000000000077f5f       0x6e /home/saraj/Desktop/glibc_modified/build/libc_pic.a(stpcpy-evex.os)
 .debug_str     0x0000000000077fcd       0x6e /home/saraj/Desktop/glibc_modified/build/libc_pic.a(stpcpy-sse2.os)
 .debug_str     0x000000000007803b       0x82 /home/saraj/Desktop/glibc_modified/build/libc_pic.a(stpcpy-sse2-unaligned.os)
 .debug_str     0x00000000000780bd       0x6e /home/saraj/Desktop/glibc_modified/build/libc_pic.a(strchr-avx2.os)
 .debug_str     0x000000000007812b       0x72 /home/saraj/Desktop/glibc_modified/build/libc_pic.a(strchr-avx2-rtm.os)
 .debug_str     0x000000000007819d       0x6e /home/saraj/Desktop/glibc_modified/build/libc_pic.a(strchr-evex.os)
 .debug_str     0x000000000007820b       0x6e /home/saraj/Desktop/glibc_modified/build/libc_pic.a(strchr-sse2.os)
 .debug_str     0x0000000000078279       0x7c /home/saraj/Desktop/glibc_modified/build/libc_pic.a(strchr-sse2-no-bsf.os)
 .debug_str     0x00000000000782f5       0x6e /home/saraj/Desktop/glibc_modified/build/libc_pic.a(strcmp-avx2.os)
 .debug_str     0x0000000000078363       0x72 /home/saraj/Desktop/glibc_modified/build/libc_pic.a(strcmp-avx2-rtm.os)
 .debug_str     0x00000000000783d5       0x6e /home/saraj/Desktop/glibc_modified/build/libc_pic.a(strcmp-evex.os)
 .debug_str     0x0000000000078443       0x6e /home/saraj/Desktop/glibc_modified/build/libc_pic.a(strcmp-sse2.os)
 .debug_str     0x00000000000784b1       0x82 /home/saraj/Desktop/glibc_modified/build/libc_pic.a(strcmp-sse2-unaligned.os)
 .debug_str     0x0000000000078533       0x71 /home/saraj/Desktop/glibc_modified/build/libc_pic.a(strcmp-sse4_2.os)
 .debug_str     0x00000000000785a4      0x3a0 /home/saraj/Desktop/glibc_modified/build/libc_pic.a(strcspn-sse4.os)
 .debug_str     0x0000000000078944       0x6e /home/saraj/Desktop/glibc_modified/build/libc_pic.a(strlen-avx2.os)
 .debug_str     0x00000000000789b2       0x72 /home/saraj/Desktop/glibc_modified/build/libc_pic.a(strlen-avx2-rtm.os)
 .debug_str     0x0000000000078a24       0x73 /home/saraj/Desktop/glibc_modified/build/libc_pic.a(strlen-evex.os)
 .debug_str     0x0000000000078a97       0x6e /home/saraj/Desktop/glibc_modified/build/libc_pic.a(strlen-sse2.os)
 .debug_str     0x0000000000078b05       0x6f /home/saraj/Desktop/glibc_modified/build/libc_pic.a(strncmp-avx2.os)
 .debug_str     0x0000000000078b74       0x73 /home/saraj/Desktop/glibc_modified/build/libc_pic.a(strncmp-avx2-rtm.os)
 .debug_str     0x0000000000078be7       0x6f /home/saraj/Desktop/glibc_modified/build/libc_pic.a(strncmp-evex.os)
 .debug_str     0x0000000000078c56       0x6f /home/saraj/Desktop/glibc_modified/build/libc_pic.a(strncmp-sse2.os)
 .debug_str     0x0000000000078cc5       0x72 /home/saraj/Desktop/glibc_modified/build/libc_pic.a(strncmp-sse4_2.os)
 .debug_str     0x0000000000078d37       0x6f /home/saraj/Desktop/glibc_modified/build/libc_pic.a(strnlen-avx2.os)
 .debug_str     0x0000000000078da6       0x73 /home/saraj/Desktop/glibc_modified/build/libc_pic.a(strnlen-avx2-rtm.os)
 .debug_str     0x0000000000078e19       0x75 /home/saraj/Desktop/glibc_modified/build/libc_pic.a(strnlen-evex.os)
 .debug_str     0x0000000000078e8e       0x6f /home/saraj/Desktop/glibc_modified/build/libc_pic.a(strnlen-sse2.os)
 .debug_str     0x0000000000078efd      0x194 /home/saraj/Desktop/glibc_modified/build/libc_pic.a(varshift.os)
 .debug_str     0x0000000000079091      0x3c0 /home/saraj/Desktop/glibc_modified/build/libc_pic.a(strcspn-generic.os)
 .debug_str     0x0000000000079451     0x2ecd /home/saraj/Desktop/glibc_modified/build/libc_pic.a(cacheinfo.os)
 .debug_str     0x000000000007c31e      0x403 /home/saraj/Desktop/glibc_modified/build/libc_pic.a(closedir.os)
 .debug_str     0x000000000007c721      0x53b /home/saraj/Desktop/glibc_modified/build/libc_pic.a(fdopendir.os)
 .debug_str     0x000000000007cc5c      0x50e /home/saraj/Desktop/glibc_modified/build/libc_pic.a(readdir64.os)
 .debug_str     0x000000000007d16a      0x476 /home/saraj/Desktop/glibc_modified/build/libc_pic.a(rewinddir.os)
 .debug_str     0x000000000007d5e0      0x397 /home/saraj/Desktop/glibc_modified/build/libc_pic.a(_exit.os)
 .debug_str     0x000000000007d977       0x82 /home/saraj/Desktop/glibc_modified/build/libc_pic.a(getpid.os)
 .debug_str     0x000000000007d9f9       0x7e /home/saraj/Desktop/glibc_modified/build/libc_pic.a(uname.os)
 .debug_str     0x000000000007da77      0x3ea /home/saraj/Desktop/glibc_modified/build/libc_pic.a(environ.os)
 .debug_str     0x000000000007de61      0x3a7 /home/saraj/Desktop/glibc_modified/build/libc_pic.a(access.os)
 .debug_str     0x000000000007e208      0x4b1 /home/saraj/Desktop/glibc_modified/build/libc_pic.a(fstat64.os)
 .debug_str     0x000000000007e6b9      0x4dc /home/saraj/Desktop/glibc_modified/build/libc_pic.a(fstatat64.os)
 .debug_str     0x000000000007eb95      0x3b7 /home/saraj/Desktop/glibc_modified/build/libc_pic.a(lseek64.os)
 .debug_str     0x000000000007ef4c      0x2bc /home/saraj/Desktop/glibc_modified/build/libc_pic.a(lstat64.os)
 .debug_str     0x000000000007f208      0x416 /home/saraj/Desktop/glibc_modified/build/libc_pic.a(openat64.os)
 .debug_str     0x000000000007f61e      0x2ba /home/saraj/Desktop/glibc_modified/build/libc_pic.a(stat64.os)
 .debug_str     0x000000000007f8d8      0x3a6 /home/saraj/Desktop/glibc_modified/build/libc_pic.a(close_nocancel.os)
 .debug_str     0x000000000007fc7e      0x3a4 /home/saraj/Desktop/glibc_modified/build/libc_pic.a(close_nocancel_nostatus.os)
 .debug_str     0x0000000000080022      0x493 /home/saraj/Desktop/glibc_modified/build/libc_pic.a(fcntl_nocancel.os)
 .debug_str     0x00000000000804b5      0x438 /home/saraj/Desktop/glibc_modified/build/libc_pic.a(open64_nocancel.os)
 .debug_str     0x00000000000808ed      0x3f7 /home/saraj/Desktop/glibc_modified/build/libc_pic.a(pread64_nocancel.os)
 .debug_str     0x0000000000080ce4      0x3d2 /home/saraj/Desktop/glibc_modified/build/libc_pic.a(read_nocancel.os)
 .debug_str     0x00000000000810b6      0x3d4 /home/saraj/Desktop/glibc_modified/build/libc_pic.a(write_nocancel.os)
 .debug_str     0x000000000008148a      0x21d /home/saraj/Desktop/glibc_modified/build/libc_pic.a(fd_to_filename.os)
 .debug_str     0x00000000000816a7     0x1b2e /home/saraj/Desktop/glibc_modified/build/libc_pic.a(mmap64.os)
 .debug_str     0x00000000000831d5       0x89 /home/saraj/Desktop/glibc_modified/build/libc_pic.a(mprotect.os)
 .debug_str     0x000000000008325e       0x81 /home/saraj/Desktop/glibc_modified/build/libc_pic.a(munmap.os)
 .debug_str     0x00000000000832df      0xcee /home/saraj/Desktop/glibc_modified/build/libc_pic.a(setvmaname.os)
 .debug_str     0x0000000000083fcd     0x16c4 /home/saraj/Desktop/glibc_modified/build/libc_pic.a(prof-freq.os)
 .debug_str     0x0000000000085691      0x71f /home/saraj/Desktop/glibc_modified/build/libc_pic.a(profil.os)
 .debug_str     0x0000000000085db0      0xab6 /home/saraj/Desktop/glibc_modified/build/libc_pic.a(dl-addr-obj.os)
 .debug_str     0x0000000000086866      0x5f1 /home/saraj/Desktop/glibc_modified/build/libc_pic.a(libc_sigaction.os)
 .debug_str     0x0000000000086e57      0x72c /home/saraj/Desktop/glibc_modified/build/libc_pic.a(errname.os)
 .debug_str     0x0000000000087583     0x1be0 /home/saraj/Desktop/glibc_modified/build/libc_pic.a(strchrnul.os)
 .debug_str     0x0000000000089163       0x71 /home/saraj/Desktop/glibc_modified/build/libc_pic.a(strchrnul-avx2.os)
 .debug_str     0x00000000000891d4       0x75 /home/saraj/Desktop/glibc_modified/build/libc_pic.a(strchrnul-avx2-rtm.os)
 .debug_str     0x0000000000089249       0x71 /home/saraj/Desktop/glibc_modified/build/libc_pic.a(strchrnul-evex.os)
 .debug_str     0x00000000000892ba       0x71 /home/saraj/Desktop/glibc_modified/build/libc_pic.a(strchrnul-sse2.os)
 .debug_str     0x000000000008932b      0x447 /home/saraj/Desktop/glibc_modified/build/libc_pic.a(setitimer.os)
 .debug_str     0x0000000000089772      0x3cc /home/saraj/Desktop/glibc_modified/build/libc_pic.a(getdents64.os)

.debug_loc
 *(.debug_loc)

.debug_macinfo
 *(.debug_macinfo)

.debug_weaknames
 *(.debug_weaknames)

.debug_funcnames
 *(.debug_funcnames)

.debug_typenames
 *(.debug_typenames)

.debug_varnames
 *(.debug_varnames)

.debug_pubtypes
 *(.debug_pubtypes)

.debug_ranges
 *(.debug_ranges)

.debug_addr
 *(.debug_addr)

.debug_line_str
                0x0000000000000000    0x14e27
 *(.debug_line_str)
 .debug_line_str
                0x0000000000000000     0xc793 /home/saraj/Desktop/glibc_modified/build/elf/dl-allobjs.os
 .debug_line_str
                0x000000000000c793      0x1ad /home/saraj/Desktop/glibc_modified/build/libc_pic.a(check_fds.os)
 .debug_line_str
                0x000000000000c940       0xef /home/saraj/Desktop/glibc_modified/build/libc_pic.a(errno.os)
 .debug_line_str
                0x000000000000ca2f       0x45 /home/saraj/Desktop/glibc_modified/build/libc_pic.a(setjmp.os)
 .debug_line_str
                0x000000000000ca74       0x48 /home/saraj/Desktop/glibc_modified/build/libc_pic.a(__longjmp.os)
 .debug_line_str
                0x000000000000cabc      0x148 /home/saraj/Desktop/glibc_modified/build/libc_pic.a(getenv.os)
 .debug_line_str
                0x000000000000cc04       0xa5 /home/saraj/Desktop/glibc_modified/build/libc_pic.a(_fitoa_word.os)
 .debug_line_str
                0x000000000000cca9       0xa8 /home/saraj/Desktop/glibc_modified/build/libc_pic.a(itoa-udigits.os)
 .debug_line_str
                0x000000000000cd51      0x136 /home/saraj/Desktop/glibc_modified/build/libc_pic.a(lowlevellock.os)
 .debug_line_str
                0x000000000000ce87      0x11d /home/saraj/Desktop/glibc_modified/build/libc_pic.a(scratch_buffer_set_array_size.os)
 .debug_line_str
                0x000000000000cfa4      0x360 /home/saraj/Desktop/glibc_modified/build/libc_pic.a(memchr.os)
 .debug_line_str
                0x000000000000d304      0x362 /home/saraj/Desktop/glibc_modified/build/libc_pic.a(memcmp.os)
 .debug_line_str
                0x000000000000d666      0x363 /home/saraj/Desktop/glibc_modified/build/libc_pic.a(memcpy.os)
 .debug_line_str
                0x000000000000d9c9      0x366 /home/saraj/Desktop/glibc_modified/build/libc_pic.a(memmove.os)
 .debug_line_str
                0x000000000000dd2f      0x366 /home/saraj/Desktop/glibc_modified/build/libc_pic.a(mempcpy.os)
 .debug_line_str
                0x000000000000e095      0x362 /home/saraj/Desktop/glibc_modified/build/libc_pic.a(memset.os)
 .debug_line_str
                0x000000000000e3f7      0x362 /home/saraj/Desktop/glibc_modified/build/libc_pic.a(stpcpy.os)
 .debug_line_str
                0x000000000000e759      0x353 /home/saraj/Desktop/glibc_modified/build/libc_pic.a(strchr.os)
 .debug_line_str
                0x000000000000eaac      0x353 /home/saraj/Desktop/glibc_modified/build/libc_pic.a(strcmp.os)
 .debug_line_str
                0x000000000000edff      0x365 /home/saraj/Desktop/glibc_modified/build/libc_pic.a(strcspn.os)
 .debug_line_str
                0x000000000000f164       0xd3 /home/saraj/Desktop/glibc_modified/build/libc_pic.a(strdup.os)
 .debug_line_str
                0x000000000000f237       0x9d /home/saraj/Desktop/glibc_modified/build/libc_pic.a(strerrorname_np.os)
 .debug_line_str
                0x000000000000f2d4      0x360 /home/saraj/Desktop/glibc_modified/build/libc_pic.a(strlen.os)
 .debug_line_str
                0x000000000000f634      0x356 /home/saraj/Desktop/glibc_modified/build/libc_pic.a(strncmp.os)
 .debug_line_str
                0x000000000000f98a      0x363 /home/saraj/Desktop/glibc_modified/build/libc_pic.a(strnlen.os)
 .debug_line_str
                0x000000000000fced       0x54 /home/saraj/Desktop/glibc_modified/build/libc_pic.a(memchr-avx2.os)
 .debug_line_str
                0x000000000000fd41       0x54 /home/saraj/Desktop/glibc_modified/build/libc_pic.a(memchr-avx2-rtm.os)
 .debug_line_str
                0x000000000000fd95       0x54 /home/saraj/Desktop/glibc_modified/build/libc_pic.a(memchr-evex.os)
 .debug_line_str
                0x000000000000fde9       0x54 /home/saraj/Desktop/glibc_modified/build/libc_pic.a(memchr-evex-rtm.os)
 .debug_line_str
                0x000000000000fe3d       0x54 /home/saraj/Desktop/glibc_modified/build/libc_pic.a(memchr-sse2.os)
 .debug_line_str
                0x000000000000fe91       0x5a /home/saraj/Desktop/glibc_modified/build/libc_pic.a(memcmp-avx2-movbe.os)
 .debug_line_str
                0x000000000000feeb       0x5a /home/saraj/Desktop/glibc_modified/build/libc_pic.a(memcmp-avx2-movbe-rtm.os)
 .debug_line_str
                0x000000000000ff45       0x5a /home/saraj/Desktop/glibc_modified/build/libc_pic.a(memcmp-evex-movbe.os)
 .debug_line_str
                0x000000000000ff9f       0x54 /home/saraj/Desktop/glibc_modified/build/libc_pic.a(memcmp-sse2.os)
 .debug_line_str
                0x000000000000fff3       0x63 /home/saraj/Desktop/glibc_modified/build/libc_pic.a(memmove-avx-unaligned-erms.os)
 .debug_line_str
                0x0000000000010056       0x63 /home/saraj/Desktop/glibc_modified/build/libc_pic.a(memmove-avx-unaligned-erms-rtm.os)
 .debug_line_str
                0x00000000000100b9       0x65 /home/saraj/Desktop/glibc_modified/build/libc_pic.a(memmove-avx512-no-vzeroupper.os)
 .debug_line_str
                0x000000000001011e       0x63 /home/saraj/Desktop/glibc_modified/build/libc_pic.a(memmove-avx512-unaligned-erms.os)
 .debug_line_str
                0x0000000000010181       0x55 /home/saraj/Desktop/glibc_modified/build/libc_pic.a(memmove-erms.os)
 .debug_line_str
                0x00000000000101d6       0x63 /home/saraj/Desktop/glibc_modified/build/libc_pic.a(memmove-evex-unaligned-erms.os)
 .debug_line_str
                0x0000000000010239       0x63 /home/saraj/Desktop/glibc_modified/build/libc_pic.a(memmove-sse2-unaligned-erms.os)
 .debug_line_str
                0x000000000001029c       0x56 /home/saraj/Desktop/glibc_modified/build/libc_pic.a(memmove-ssse3.os)
 .debug_line_str
                0x00000000000102f2       0x62 /home/saraj/Desktop/glibc_modified/build/libc_pic.a(memset-avx2-unaligned-erms.os)
 .debug_line_str
                0x0000000000010354       0x62 /home/saraj/Desktop/glibc_modified/build/libc_pic.a(memset-avx2-unaligned-erms-rtm.os)
 .debug_line_str
                0x00000000000103b6       0x64 /home/saraj/Desktop/glibc_modified/build/libc_pic.a(memset-avx512-no-vzeroupper.os)
 .debug_line_str
                0x000000000001041a       0x62 /home/saraj/Desktop/glibc_modified/build/libc_pic.a(memset-avx512-unaligned-erms.os)
 .debug_line_str
                0x000000000001047c       0x54 /home/saraj/Desktop/glibc_modified/build/libc_pic.a(memset-erms.os)
 .debug_line_str
                0x00000000000104d0       0x62 /home/saraj/Desktop/glibc_modified/build/libc_pic.a(memset-evex-unaligned-erms.os)
 .debug_line_str
                0x0000000000010532       0x62 /home/saraj/Desktop/glibc_modified/build/libc_pic.a(memset-sse2-unaligned-erms.os)
 .debug_line_str
                0x0000000000010594       0x54 /home/saraj/Desktop/glibc_modified/build/libc_pic.a(stpcpy-avx2.os)
 .debug_line_str
                0x00000000000105e8       0x54 /home/saraj/Desktop/glibc_modified/build/libc_pic.a(stpcpy-avx2-rtm.os)
 .debug_line_str
                0x000000000001063c       0x54 /home/saraj/Desktop/glibc_modified/build/libc_pic.a(stpcpy-evex.os)
 .debug_line_str
                0x0000000000010690       0x54 /home/saraj/Desktop/glibc_modified/build/libc_pic.a(stpcpy-sse2.os)
 .debug_line_str
                0x00000000000106e4       0x5e /home/saraj/Desktop/glibc_modified/build/libc_pic.a(stpcpy-sse2-unaligned.os)
 .debug_line_str
                0x0000000000010742       0x54 /home/saraj/Desktop/glibc_modified/build/libc_pic.a(strchr-avx2.os)
 .debug_line_str
                0x0000000000010796       0x54 /home/saraj/Desktop/glibc_modified/build/libc_pic.a(strchr-avx2-rtm.os)
 .debug_line_str
                0x00000000000107ea       0x54 /home/saraj/Desktop/glibc_modified/build/libc_pic.a(strchr-evex.os)
 .debug_line_str
                0x000000000001083e       0x54 /home/saraj/Desktop/glibc_modified/build/libc_pic.a(strchr-sse2.os)
 .debug_line_str
                0x0000000000010892       0x5b /home/saraj/Desktop/glibc_modified/build/libc_pic.a(strchr-sse2-no-bsf.os)
 .debug_line_str
                0x00000000000108ed       0x54 /home/saraj/Desktop/glibc_modified/build/libc_pic.a(strcmp-avx2.os)
 .debug_line_str
                0x0000000000010941       0x54 /home/saraj/Desktop/glibc_modified/build/libc_pic.a(strcmp-avx2-rtm.os)
 .debug_line_str
                0x0000000000010995       0x54 /home/saraj/Desktop/glibc_modified/build/libc_pic.a(strcmp-evex.os)
 .debug_line_str
                0x00000000000109e9       0x54 /home/saraj/Desktop/glibc_modified/build/libc_pic.a(strcmp-sse2.os)
 .debug_line_str
                0x0000000000010a3d       0x5e /home/saraj/Desktop/glibc_modified/build/libc_pic.a(strcmp-sse2-unaligned.os)
 .debug_line_str
                0x0000000000010a9b       0x56 /home/saraj/Desktop/glibc_modified/build/libc_pic.a(strcmp-sse4_2.os)
 .debug_line_str
                0x0000000000010af1      0x15a /home/saraj/Desktop/glibc_modified/build/libc_pic.a(strcspn-sse4.os)
 .debug_line_str
                0x0000000000010c4b       0x54 /home/saraj/Desktop/glibc_modified/build/libc_pic.a(strlen-avx2.os)
 .debug_line_str
                0x0000000000010c9f       0x54 /home/saraj/Desktop/glibc_modified/build/libc_pic.a(strlen-avx2-rtm.os)
 .debug_line_str
                0x0000000000010cf3       0x59 /home/saraj/Desktop/glibc_modified/build/libc_pic.a(strlen-evex.os)
 .debug_line_str
                0x0000000000010d4c       0x54 /home/saraj/Desktop/glibc_modified/build/libc_pic.a(strlen-sse2.os)
 .debug_line_str
                0x0000000000010da0       0x54 /home/saraj/Desktop/glibc_modified/build/libc_pic.a(strncmp-avx2.os)
 .debug_line_str
                0x0000000000010df4       0x54 /home/saraj/Desktop/glibc_modified/build/libc_pic.a(strncmp-avx2-rtm.os)
 .debug_line_str
                0x0000000000010e48       0x54 /home/saraj/Desktop/glibc_modified/build/libc_pic.a(strncmp-evex.os)
 .debug_line_str
                0x0000000000010e9c       0x54 /home/saraj/Desktop/glibc_modified/build/libc_pic.a(strncmp-sse2.os)
 .debug_line_str
                0x0000000000010ef0       0x56 /home/saraj/Desktop/glibc_modified/build/libc_pic.a(strncmp-sse4_2.os)
 .debug_line_str
                0x0000000000010f46       0x54 /home/saraj/Desktop/glibc_modified/build/libc_pic.a(strnlen-avx2.os)
 .debug_line_str
                0x0000000000010f9a       0x54 /home/saraj/Desktop/glibc_modified/build/libc_pic.a(strnlen-avx2-rtm.os)
 .debug_line_str
                0x0000000000010fee       0x5a /home/saraj/Desktop/glibc_modified/build/libc_pic.a(strnlen-evex.os)
 .debug_line_str
                0x0000000000011048       0x54 /home/saraj/Desktop/glibc_modified/build/libc_pic.a(strnlen-sse2.os)
 .debug_line_str
                0x000000000001109c       0xd9 /home/saraj/Desktop/glibc_modified/build/libc_pic.a(varshift.os)
 .debug_line_str
                0x0000000000011175      0x193 /home/saraj/Desktop/glibc_modified/build/libc_pic.a(strcspn-generic.os)
 .debug_line_str
                0x0000000000011308      0x35c /home/saraj/Desktop/glibc_modified/build/libc_pic.a(cacheinfo.os)
 .debug_line_str
                0x0000000000011664      0x1d7 /home/saraj/Desktop/glibc_modified/build/libc_pic.a(closedir.os)
 .debug_line_str
                0x000000000001183b      0x23d /home/saraj/Desktop/glibc_modified/build/libc_pic.a(fdopendir.os)
 .debug_line_str
                0x0000000000011a78      0x1db /home/saraj/Desktop/glibc_modified/build/libc_pic.a(readdir64.os)
 .debug_line_str
                0x0000000000011c53      0x1ca /home/saraj/Desktop/glibc_modified/build/libc_pic.a(rewinddir.os)
 .debug_line_str
                0x0000000000011e1d      0x129 /home/saraj/Desktop/glibc_modified/build/libc_pic.a(_exit.os)
 .debug_line_str
                0x0000000000011f46       0x4c /home/saraj/Desktop/glibc_modified/build/libc_pic.a(getpid.os)
 .debug_line_str
                0x0000000000011f92       0x4c /home/saraj/Desktop/glibc_modified/build/libc_pic.a(uname.os)
 .debug_line_str
                0x0000000000011fde      0x13d /home/saraj/Desktop/glibc_modified/build/libc_pic.a(environ.os)
 .debug_line_str
                0x000000000001211b      0x126 /home/saraj/Desktop/glibc_modified/build/libc_pic.a(access.os)
 .debug_line_str
                0x0000000000012241      0x180 /home/saraj/Desktop/glibc_modified/build/libc_pic.a(fstat64.os)
 .debug_line_str
                0x00000000000123c1      0x186 /home/saraj/Desktop/glibc_modified/build/libc_pic.a(fstatat64.os)
 .debug_line_str
                0x0000000000012547      0x13b /home/saraj/Desktop/glibc_modified/build/libc_pic.a(lseek64.os)
 .debug_line_str
                0x0000000000012682      0x123 /home/saraj/Desktop/glibc_modified/build/libc_pic.a(lstat64.os)
 .debug_line_str
                0x00000000000127a5      0x1a0 /home/saraj/Desktop/glibc_modified/build/libc_pic.a(openat64.os)
 .debug_line_str
                0x0000000000012945      0x120 /home/saraj/Desktop/glibc_modified/build/libc_pic.a(stat64.os)
 .debug_line_str
                0x0000000000012a65      0x13e /home/saraj/Desktop/glibc_modified/build/libc_pic.a(close_nocancel.os)
 .debug_line_str
                0x0000000000012ba3      0x146 /home/saraj/Desktop/glibc_modified/build/libc_pic.a(close_nocancel_nostatus.os)
 .debug_line_str
                0x0000000000012ce9      0x189 /home/saraj/Desktop/glibc_modified/build/libc_pic.a(fcntl_nocancel.os)
 .debug_line_str
                0x0000000000012e72      0x17e /home/saraj/Desktop/glibc_modified/build/libc_pic.a(open64_nocancel.os)
 .debug_line_str
                0x0000000000012ff0      0x188 /home/saraj/Desktop/glibc_modified/build/libc_pic.a(pread64_nocancel.os)
 .debug_line_str
                0x0000000000013178      0x17f /home/saraj/Desktop/glibc_modified/build/libc_pic.a(read_nocancel.os)
 .debug_line_str
                0x00000000000132f7      0x182 /home/saraj/Desktop/glibc_modified/build/libc_pic.a(write_nocancel.os)
 .debug_line_str
                0x0000000000013479       0xfe /home/saraj/Desktop/glibc_modified/build/libc_pic.a(fd_to_filename.os)
 .debug_line_str
                0x0000000000013577      0x329 /home/saraj/Desktop/glibc_modified/build/libc_pic.a(mmap64.os)
 .debug_line_str
                0x00000000000138a0       0x4b /home/saraj/Desktop/glibc_modified/build/libc_pic.a(mprotect.os)
 .debug_line_str
                0x00000000000138eb       0x4b /home/saraj/Desktop/glibc_modified/build/libc_pic.a(munmap.os)
 .debug_line_str
                0x0000000000013936      0x20f /home/saraj/Desktop/glibc_modified/build/libc_pic.a(setvmaname.os)
 .debug_line_str
                0x0000000000013b45      0x318 /home/saraj/Desktop/glibc_modified/build/libc_pic.a(prof-freq.os)
 .debug_line_str
                0x0000000000013e5d      0x2c6 /home/saraj/Desktop/glibc_modified/build/libc_pic.a(profil.os)
 .debug_line_str
                0x0000000000014123      0x1fa /home/saraj/Desktop/glibc_modified/build/libc_pic.a(dl-addr-obj.os)
 .debug_line_str
                0x000000000001431d      0x259 /home/saraj/Desktop/glibc_modified/build/libc_pic.a(libc_sigaction.os)
 .debug_line_str
                0x0000000000014576      0x10d /home/saraj/Desktop/glibc_modified/build/libc_pic.a(errname.os)
 .debug_line_str
                0x0000000000014683      0x369 /home/saraj/Desktop/glibc_modified/build/libc_pic.a(strchrnul.os)
 .debug_line_str
                0x00000000000149ec       0x54 /home/saraj/Desktop/glibc_modified/build/libc_pic.a(strchrnul-avx2.os)
 .debug_line_str
                0x0000000000014a40       0x54 /home/saraj/Desktop/glibc_modified/build/libc_pic.a(strchrnul-avx2-rtm.os)
 .debug_line_str
                0x0000000000014a94       0x54 /home/saraj/Desktop/glibc_modified/build/libc_pic.a(strchrnul-evex.os)
 .debug_line_str
                0x0000000000014ae8       0x54 /home/saraj/Desktop/glibc_modified/build/libc_pic.a(strchrnul-sse2.os)
 .debug_line_str
                0x0000000000014b3c      0x16a /home/saraj/Desktop/glibc_modified/build/libc_pic.a(setitimer.os)
 .debug_line_str
                0x0000000000014ca6      0x181 /home/saraj/Desktop/glibc_modified/build/libc_pic.a(getdents64.os)

.debug_loclists
                0x0000000000000000    0x29e26
 *(.debug_loclists)
 .debug_loclists
                0x0000000000000000    0x27fb4 /home/saraj/Desktop/glibc_modified/build/elf/dl-allobjs.os
 .debug_loclists
                0x0000000000027fb4       0xa2 /home/saraj/Desktop/glibc_modified/build/libc_pic.a(check_fds.os)
 .debug_loclists
                0x0000000000028056       0x96 /home/saraj/Desktop/glibc_modified/build/libc_pic.a(getenv.os)
 .debug_loclists
                0x00000000000280ec      0x160 /home/saraj/Desktop/glibc_modified/build/libc_pic.a(_fitoa_word.os)
 .debug_loclists
                0x000000000002824c      0x18c /home/saraj/Desktop/glibc_modified/build/libc_pic.a(lowlevellock.os)
 .debug_loclists
                0x00000000000283d8       0xe8 /home/saraj/Desktop/glibc_modified/build/libc_pic.a(scratch_buffer_set_array_size.os)
 .debug_loclists
                0x00000000000284c0       0x62 /home/saraj/Desktop/glibc_modified/build/libc_pic.a(strdup.os)
 .debug_loclists
                0x0000000000028522       0x1e /home/saraj/Desktop/glibc_modified/build/libc_pic.a(strerrorname_np.os)
 .debug_loclists
                0x0000000000028540      0x4cd /home/saraj/Desktop/glibc_modified/build/libc_pic.a(strcspn-sse4.os)
 .debug_loclists
                0x0000000000028a0d      0x14c /home/saraj/Desktop/glibc_modified/build/libc_pic.a(strcspn-generic.os)
 .debug_loclists
                0x0000000000028b59       0x70 /home/saraj/Desktop/glibc_modified/build/libc_pic.a(cacheinfo.os)
 .debug_loclists
                0x0000000000028bc9       0x34 /home/saraj/Desktop/glibc_modified/build/libc_pic.a(closedir.os)
 .debug_loclists
                0x0000000000028bfd       0x4e /home/saraj/Desktop/glibc_modified/build/libc_pic.a(fdopendir.os)
 .debug_loclists
                0x0000000000028c4b      0x15b /home/saraj/Desktop/glibc_modified/build/libc_pic.a(readdir64.os)
 .debug_loclists
                0x0000000000028da6       0xcd /home/saraj/Desktop/glibc_modified/build/libc_pic.a(rewinddir.os)
 .debug_loclists
                0x0000000000028e73       0x2b /home/saraj/Desktop/glibc_modified/build/libc_pic.a(_exit.os)
 .debug_loclists
                0x0000000000028e9e       0x2c /home/saraj/Desktop/glibc_modified/build/libc_pic.a(access.os)
 .debug_loclists
                0x0000000000028eca       0x2c /home/saraj/Desktop/glibc_modified/build/libc_pic.a(fstat64.os)
 .debug_loclists
                0x0000000000028ef6       0xa4 /home/saraj/Desktop/glibc_modified/build/libc_pic.a(fstatat64.os)
 .debug_loclists
                0x0000000000028f9a       0x50 /home/saraj/Desktop/glibc_modified/build/libc_pic.a(lseek64.os)
 .debug_loclists
                0x0000000000028fea       0x3e /home/saraj/Desktop/glibc_modified/build/libc_pic.a(lstat64.os)
 .debug_loclists
                0x0000000000029028       0x68 /home/saraj/Desktop/glibc_modified/build/libc_pic.a(openat64.os)
 .debug_loclists
                0x0000000000029090       0x3e /home/saraj/Desktop/glibc_modified/build/libc_pic.a(stat64.os)
 .debug_loclists
                0x00000000000290ce       0x24 /home/saraj/Desktop/glibc_modified/build/libc_pic.a(close_nocancel.os)
 .debug_loclists
                0x00000000000290f2       0x14 /home/saraj/Desktop/glibc_modified/build/libc_pic.a(close_nocancel_nostatus.os)
 .debug_loclists
                0x0000000000029106      0x248 /home/saraj/Desktop/glibc_modified/build/libc_pic.a(fcntl_nocancel.os)
 .debug_loclists
                0x000000000002934e       0xe5 /home/saraj/Desktop/glibc_modified/build/libc_pic.a(open64_nocancel.os)
 .debug_loclists
                0x0000000000029433       0x6e /home/saraj/Desktop/glibc_modified/build/libc_pic.a(pread64_nocancel.os)
 .debug_loclists
                0x00000000000294a1       0x50 /home/saraj/Desktop/glibc_modified/build/libc_pic.a(read_nocancel.os)
 .debug_loclists
                0x00000000000294f1       0x50 /home/saraj/Desktop/glibc_modified/build/libc_pic.a(write_nocancel.os)
 .debug_loclists
                0x0000000000029541       0x70 /home/saraj/Desktop/glibc_modified/build/libc_pic.a(fd_to_filename.os)
 .debug_loclists
                0x00000000000295b1      0x1e6 /home/saraj/Desktop/glibc_modified/build/libc_pic.a(mmap64.os)
 .debug_loclists
                0x0000000000029797      0x137 /home/saraj/Desktop/glibc_modified/build/libc_pic.a(setvmaname.os)
 .debug_loclists
                0x00000000000298ce      0x1c7 /home/saraj/Desktop/glibc_modified/build/libc_pic.a(profil.os)
 .debug_loclists
                0x0000000000029a95      0x16b /home/saraj/Desktop/glibc_modified/build/libc_pic.a(dl-addr-obj.os)
 .debug_loclists
                0x0000000000029c00       0xd7 /home/saraj/Desktop/glibc_modified/build/libc_pic.a(libc_sigaction.os)
 .debug_loclists
                0x0000000000029cd7       0x14 /home/saraj/Desktop/glibc_modified/build/libc_pic.a(errname.os)
 .debug_loclists
                0x0000000000029ceb       0x50 /home/saraj/Desktop/glibc_modified/build/libc_pic.a(setitimer.os)
 .debug_loclists
                0x0000000000029d3b       0xeb /home/saraj/Desktop/glibc_modified/build/libc_pic.a(getdents64.os)

.debug_macro
 *(.debug_macro)

.debug_names
 *(.debug_names)

.debug_rnglists
                0x0000000000000000     0x5f4a
 *(.debug_rnglists)
 .debug_rnglists
                0x0000000000000000     0x5a68 /home/saraj/Desktop/glibc_modified/build/elf/dl-allobjs.os
 .debug_rnglists
                0x0000000000005a68       0x2b /home/saraj/Desktop/glibc_modified/build/libc_pic.a(getenv.os)
 .debug_rnglists
                0x0000000000005a93       0x2f /home/saraj/Desktop/glibc_modified/build/libc_pic.a(lowlevellock.os)
 .debug_rnglists
                0x0000000000005ac2       0x20 /home/saraj/Desktop/glibc_modified/build/libc_pic.a(scratch_buffer_set_array_size.os)
 .debug_rnglists
                0x0000000000005ae2       0x17 /home/saraj/Desktop/glibc_modified/build/libc_pic.a(memchr.os)
 .debug_rnglists
                0x0000000000005af9       0x13 /home/saraj/Desktop/glibc_modified/build/libc_pic.a(memcmp.os)
 .debug_rnglists
                0x0000000000005b0c       0x16 /home/saraj/Desktop/glibc_modified/build/libc_pic.a(memcpy.os)
 .debug_rnglists
                0x0000000000005b22       0x16 /home/saraj/Desktop/glibc_modified/build/libc_pic.a(memmove.os)
 .debug_rnglists
                0x0000000000005b38       0x16 /home/saraj/Desktop/glibc_modified/build/libc_pic.a(mempcpy.os)
 .debug_rnglists
                0x0000000000005b4e       0x1f /home/saraj/Desktop/glibc_modified/build/libc_pic.a(memset.os)
 .debug_rnglists
                0x0000000000005b6d       0x13 /home/saraj/Desktop/glibc_modified/build/libc_pic.a(stpcpy.os)
 .debug_rnglists
                0x0000000000005b80       0x16 /home/saraj/Desktop/glibc_modified/build/libc_pic.a(strchr.os)
 .debug_rnglists
                0x0000000000005b96       0x17 /home/saraj/Desktop/glibc_modified/build/libc_pic.a(strcmp.os)
 .debug_rnglists
                0x0000000000005bad       0x14 /home/saraj/Desktop/glibc_modified/build/libc_pic.a(strlen.os)
 .debug_rnglists
                0x0000000000005bc1       0x14 /home/saraj/Desktop/glibc_modified/build/libc_pic.a(strncmp.os)
 .debug_rnglists
                0x0000000000005bd5       0x14 /home/saraj/Desktop/glibc_modified/build/libc_pic.a(strnlen.os)
 .debug_rnglists
                0x0000000000005be9      0x12c /home/saraj/Desktop/glibc_modified/build/libc_pic.a(strcspn-sse4.os)
 .debug_rnglists
                0x0000000000005d15       0x34 /home/saraj/Desktop/glibc_modified/build/libc_pic.a(readdir64.os)
 .debug_rnglists
                0x0000000000005d49       0x29 /home/saraj/Desktop/glibc_modified/build/libc_pic.a(rewinddir.os)
 .debug_rnglists
                0x0000000000005d72       0x1a /home/saraj/Desktop/glibc_modified/build/libc_pic.a(_exit.os)
 .debug_rnglists
                0x0000000000005d8c       0x13 /home/saraj/Desktop/glibc_modified/build/libc_pic.a(access.os)
 .debug_rnglists
                0x0000000000005d9f       0x13 /home/saraj/Desktop/glibc_modified/build/libc_pic.a(fstat64.os)
 .debug_rnglists
                0x0000000000005db2       0x13 /home/saraj/Desktop/glibc_modified/build/libc_pic.a(lseek64.os)
 .debug_rnglists
                0x0000000000005dc5       0x13 /home/saraj/Desktop/glibc_modified/build/libc_pic.a(openat64.os)
 .debug_rnglists
                0x0000000000005dd8       0x13 /home/saraj/Desktop/glibc_modified/build/libc_pic.a(close_nocancel.os)
 .debug_rnglists
                0x0000000000005deb       0x3a /home/saraj/Desktop/glibc_modified/build/libc_pic.a(fcntl_nocancel.os)
 .debug_rnglists
                0x0000000000005e25       0x13 /home/saraj/Desktop/glibc_modified/build/libc_pic.a(open64_nocancel.os)
 .debug_rnglists
                0x0000000000005e38       0x1d /home/saraj/Desktop/glibc_modified/build/libc_pic.a(pread64_nocancel.os)
 .debug_rnglists
                0x0000000000005e55       0x13 /home/saraj/Desktop/glibc_modified/build/libc_pic.a(read_nocancel.os)
 .debug_rnglists
                0x0000000000005e68       0x13 /home/saraj/Desktop/glibc_modified/build/libc_pic.a(write_nocancel.os)
 .debug_rnglists
                0x0000000000005e7b       0x20 /home/saraj/Desktop/glibc_modified/build/libc_pic.a(mmap64.os)
 .debug_rnglists
                0x0000000000005e9b       0x1e /home/saraj/Desktop/glibc_modified/build/libc_pic.a(setvmaname.os)
 .debug_rnglists
                0x0000000000005eb9       0x3a /home/saraj/Desktop/glibc_modified/build/libc_pic.a(libc_sigaction.os)
 .debug_rnglists
                0x0000000000005ef3       0x13 /home/saraj/Desktop/glibc_modified/build/libc_pic.a(errname.os)
 .debug_rnglists
                0x0000000000005f06       0x14 /home/saraj/Desktop/glibc_modified/build/libc_pic.a(strchrnul.os)
 .debug_rnglists
                0x0000000000005f1a       0x13 /home/saraj/Desktop/glibc_modified/build/libc_pic.a(setitimer.os)
 .debug_rnglists
                0x0000000000005f2d       0x1d /home/saraj/Desktop/glibc_modified/build/libc_pic.a(getdents64.os)

.debug_str_offsets
 *(.debug_str_offsets)

.debug_sup
 *(.debug_sup)

.gnu.attributes
 *(.gnu.attributes)
OUTPUT(/home/saraj/Desktop/glibc_modified/build/elf/librtld.map.o elf64-x86-64)
